Archive member included to satisfy reference by file (symbol)

/home/naoki/edk2/xv6_bootloader/build/RELEASE_GCC5/IA32/MdePkg/Library/BaseDebugPrintErrorLevelLib/BaseDebugPrintErrorLevelLib/OUTPUT/BaseDebugPrintErrorLevelLib.lib(BaseDebugPrintErrorLevelLib.obj)
                              (--whole-archive)
/home/naoki/edk2/xv6_bootloader/build/RELEASE_GCC5/IA32/MdePkg/Library/BasePrintLib/BasePrintLib/OUTPUT/BasePrintLib.lib(PrintLibInternal.obj)
                              (--whole-archive)
/home/naoki/edk2/xv6_bootloader/build/RELEASE_GCC5/IA32/MdePkg/Library/BasePrintLib/BasePrintLib/OUTPUT/BasePrintLib.lib(PrintLib.obj)
                              (--whole-archive)
/home/naoki/edk2/xv6_bootloader/build/RELEASE_GCC5/IA32/MdePkg/Library/BaseMemoryLib/BaseMemoryLib/OUTPUT/BaseMemoryLib.lib(SetMem.obj)
                              (--whole-archive)
/home/naoki/edk2/xv6_bootloader/build/RELEASE_GCC5/IA32/MdePkg/Library/BaseMemoryLib/BaseMemoryLib/OUTPUT/BaseMemoryLib.lib(ScanMem64Wrapper.obj)
                              (--whole-archive)
/home/naoki/edk2/xv6_bootloader/build/RELEASE_GCC5/IA32/MdePkg/Library/BaseMemoryLib/BaseMemoryLib/OUTPUT/BaseMemoryLib.lib(ScanMem32Wrapper.obj)
                              (--whole-archive)
/home/naoki/edk2/xv6_bootloader/build/RELEASE_GCC5/IA32/MdePkg/Library/BaseMemoryLib/BaseMemoryLib/OUTPUT/BaseMemoryLib.lib(ScanMem16Wrapper.obj)
                              (--whole-archive)
/home/naoki/edk2/xv6_bootloader/build/RELEASE_GCC5/IA32/MdePkg/Library/BaseMemoryLib/BaseMemoryLib/OUTPUT/BaseMemoryLib.lib(ScanMem8Wrapper.obj)
                              (--whole-archive)
/home/naoki/edk2/xv6_bootloader/build/RELEASE_GCC5/IA32/MdePkg/Library/BaseMemoryLib/BaseMemoryLib/OUTPUT/BaseMemoryLib.lib(ZeroMemWrapper.obj)
                              (--whole-archive)
/home/naoki/edk2/xv6_bootloader/build/RELEASE_GCC5/IA32/MdePkg/Library/BaseMemoryLib/BaseMemoryLib/OUTPUT/BaseMemoryLib.lib(CompareMemWrapper.obj)
                              (--whole-archive)
/home/naoki/edk2/xv6_bootloader/build/RELEASE_GCC5/IA32/MdePkg/Library/BaseMemoryLib/BaseMemoryLib/OUTPUT/BaseMemoryLib.lib(SetMem64Wrapper.obj)
                              (--whole-archive)
/home/naoki/edk2/xv6_bootloader/build/RELEASE_GCC5/IA32/MdePkg/Library/BaseMemoryLib/BaseMemoryLib/OUTPUT/BaseMemoryLib.lib(SetMem32Wrapper.obj)
                              (--whole-archive)
/home/naoki/edk2/xv6_bootloader/build/RELEASE_GCC5/IA32/MdePkg/Library/BaseMemoryLib/BaseMemoryLib/OUTPUT/BaseMemoryLib.lib(SetMem16Wrapper.obj)
                              (--whole-archive)
/home/naoki/edk2/xv6_bootloader/build/RELEASE_GCC5/IA32/MdePkg/Library/BaseMemoryLib/BaseMemoryLib/OUTPUT/BaseMemoryLib.lib(SetMemWrapper.obj)
                              (--whole-archive)
/home/naoki/edk2/xv6_bootloader/build/RELEASE_GCC5/IA32/MdePkg/Library/BaseMemoryLib/BaseMemoryLib/OUTPUT/BaseMemoryLib.lib(CopyMemWrapper.obj)
                              (--whole-archive)
/home/naoki/edk2/xv6_bootloader/build/RELEASE_GCC5/IA32/MdePkg/Library/BaseMemoryLib/BaseMemoryLib/OUTPUT/BaseMemoryLib.lib(IsZeroBufferWrapper.obj)
                              (--whole-archive)
/home/naoki/edk2/xv6_bootloader/build/RELEASE_GCC5/IA32/MdePkg/Library/BaseMemoryLib/BaseMemoryLib/OUTPUT/BaseMemoryLib.lib(MemLibGeneric.obj)
                              (--whole-archive)
/home/naoki/edk2/xv6_bootloader/build/RELEASE_GCC5/IA32/MdePkg/Library/BaseMemoryLib/BaseMemoryLib/OUTPUT/BaseMemoryLib.lib(MemLibGuid.obj)
                              (--whole-archive)
/home/naoki/edk2/xv6_bootloader/build/RELEASE_GCC5/IA32/MdePkg/Library/BaseMemoryLib/BaseMemoryLib/OUTPUT/BaseMemoryLib.lib(CopyMem.obj)
                              (--whole-archive)
/home/naoki/edk2/xv6_bootloader/build/RELEASE_GCC5/IA32/MdePkg/Library/BasePcdLibNull/BasePcdLibNull/OUTPUT/BasePcdLibNull.lib(PcdLib.obj)
                              (--whole-archive)
/home/naoki/edk2/xv6_bootloader/build/RELEASE_GCC5/IA32/MdePkg/Library/BaseLib/BaseLib/OUTPUT/BaseLib.lib(CheckSum.obj)
                              (--whole-archive)
/home/naoki/edk2/xv6_bootloader/build/RELEASE_GCC5/IA32/MdePkg/Library/BaseLib/BaseLib/OUTPUT/BaseLib.lib(SwitchStack.obj)
                              (--whole-archive)
/home/naoki/edk2/xv6_bootloader/build/RELEASE_GCC5/IA32/MdePkg/Library/BaseLib/BaseLib/OUTPUT/BaseLib.lib(SwapBytes64.obj)
                              (--whole-archive)
/home/naoki/edk2/xv6_bootloader/build/RELEASE_GCC5/IA32/MdePkg/Library/BaseLib/BaseLib/OUTPUT/BaseLib.lib(SwapBytes32.obj)
                              (--whole-archive)
/home/naoki/edk2/xv6_bootloader/build/RELEASE_GCC5/IA32/MdePkg/Library/BaseLib/BaseLib/OUTPUT/BaseLib.lib(SwapBytes16.obj)
                              (--whole-archive)
/home/naoki/edk2/xv6_bootloader/build/RELEASE_GCC5/IA32/MdePkg/Library/BaseLib/BaseLib/OUTPUT/BaseLib.lib(LongJump.obj)
                              (--whole-archive)
/home/naoki/edk2/xv6_bootloader/build/RELEASE_GCC5/IA32/MdePkg/Library/BaseLib/BaseLib/OUTPUT/BaseLib.lib(SetJump.obj)
                              (--whole-archive)
/home/naoki/edk2/xv6_bootloader/build/RELEASE_GCC5/IA32/MdePkg/Library/BaseLib/BaseLib/OUTPUT/BaseLib.lib(RShiftU64.obj)
                              (--whole-archive)
/home/naoki/edk2/xv6_bootloader/build/RELEASE_GCC5/IA32/MdePkg/Library/BaseLib/BaseLib/OUTPUT/BaseLib.lib(RRotU64.obj)
                              (--whole-archive)
/home/naoki/edk2/xv6_bootloader/build/RELEASE_GCC5/IA32/MdePkg/Library/BaseLib/BaseLib/OUTPUT/BaseLib.lib(RRotU32.obj)
                              (--whole-archive)
/home/naoki/edk2/xv6_bootloader/build/RELEASE_GCC5/IA32/MdePkg/Library/BaseLib/BaseLib/OUTPUT/BaseLib.lib(MultU64x64.obj)
                              (--whole-archive)
/home/naoki/edk2/xv6_bootloader/build/RELEASE_GCC5/IA32/MdePkg/Library/BaseLib/BaseLib/OUTPUT/BaseLib.lib(MultU64x32.obj)
                              (--whole-archive)
/home/naoki/edk2/xv6_bootloader/build/RELEASE_GCC5/IA32/MdePkg/Library/BaseLib/BaseLib/OUTPUT/BaseLib.lib(MultS64x64.obj)
                              (--whole-archive)
/home/naoki/edk2/xv6_bootloader/build/RELEASE_GCC5/IA32/MdePkg/Library/BaseLib/BaseLib/OUTPUT/BaseLib.lib(ModU64x32.obj)
                              (--whole-archive)
/home/naoki/edk2/xv6_bootloader/build/RELEASE_GCC5/IA32/MdePkg/Library/BaseLib/BaseLib/OUTPUT/BaseLib.lib(LShiftU64.obj)
                              (--whole-archive)
/home/naoki/edk2/xv6_bootloader/build/RELEASE_GCC5/IA32/MdePkg/Library/BaseLib/BaseLib/OUTPUT/BaseLib.lib(LRotU64.obj)
                              (--whole-archive)
/home/naoki/edk2/xv6_bootloader/build/RELEASE_GCC5/IA32/MdePkg/Library/BaseLib/BaseLib/OUTPUT/BaseLib.lib(LRotU32.obj)
                              (--whole-archive)
/home/naoki/edk2/xv6_bootloader/build/RELEASE_GCC5/IA32/MdePkg/Library/BaseLib/BaseLib/OUTPUT/BaseLib.lib(LowBitSet64.obj)
                              (--whole-archive)
/home/naoki/edk2/xv6_bootloader/build/RELEASE_GCC5/IA32/MdePkg/Library/BaseLib/BaseLib/OUTPUT/BaseLib.lib(LowBitSet32.obj)
                              (--whole-archive)
/home/naoki/edk2/xv6_bootloader/build/RELEASE_GCC5/IA32/MdePkg/Library/BaseLib/BaseLib/OUTPUT/BaseLib.lib(HighBitSet64.obj)
                              (--whole-archive)
/home/naoki/edk2/xv6_bootloader/build/RELEASE_GCC5/IA32/MdePkg/Library/BaseLib/BaseLib/OUTPUT/BaseLib.lib(HighBitSet32.obj)
                              (--whole-archive)
/home/naoki/edk2/xv6_bootloader/build/RELEASE_GCC5/IA32/MdePkg/Library/BaseLib/BaseLib/OUTPUT/BaseLib.lib(GetPowerOfTwo64.obj)
                              (--whole-archive)
/home/naoki/edk2/xv6_bootloader/build/RELEASE_GCC5/IA32/MdePkg/Library/BaseLib/BaseLib/OUTPUT/BaseLib.lib(GetPowerOfTwo32.obj)
                              (--whole-archive)
/home/naoki/edk2/xv6_bootloader/build/RELEASE_GCC5/IA32/MdePkg/Library/BaseLib/BaseLib/OUTPUT/BaseLib.lib(DivU64x64Remainder.obj)
                              (--whole-archive)
/home/naoki/edk2/xv6_bootloader/build/RELEASE_GCC5/IA32/MdePkg/Library/BaseLib/BaseLib/OUTPUT/BaseLib.lib(DivU64x32Remainder.obj)
                              (--whole-archive)
/home/naoki/edk2/xv6_bootloader/build/RELEASE_GCC5/IA32/MdePkg/Library/BaseLib/BaseLib/OUTPUT/BaseLib.lib(DivU64x32.obj)
                              (--whole-archive)
/home/naoki/edk2/xv6_bootloader/build/RELEASE_GCC5/IA32/MdePkg/Library/BaseLib/BaseLib/OUTPUT/BaseLib.lib(DivS64x64Remainder.obj)
                              (--whole-archive)
/home/naoki/edk2/xv6_bootloader/build/RELEASE_GCC5/IA32/MdePkg/Library/BaseLib/BaseLib/OUTPUT/BaseLib.lib(ARShiftU64.obj)
                              (--whole-archive)
/home/naoki/edk2/xv6_bootloader/build/RELEASE_GCC5/IA32/MdePkg/Library/BaseLib/BaseLib/OUTPUT/BaseLib.lib(BitField.obj)
                              (--whole-archive)
/home/naoki/edk2/xv6_bootloader/build/RELEASE_GCC5/IA32/MdePkg/Library/BaseLib/BaseLib/OUTPUT/BaseLib.lib(CpuDeadLoop.obj)
                              (--whole-archive)
/home/naoki/edk2/xv6_bootloader/build/RELEASE_GCC5/IA32/MdePkg/Library/BaseLib/BaseLib/OUTPUT/BaseLib.lib(Cpu.obj)
                              (--whole-archive)
/home/naoki/edk2/xv6_bootloader/build/RELEASE_GCC5/IA32/MdePkg/Library/BaseLib/BaseLib/OUTPUT/BaseLib.lib(LinkedList.obj)
                              (--whole-archive)
/home/naoki/edk2/xv6_bootloader/build/RELEASE_GCC5/IA32/MdePkg/Library/BaseLib/BaseLib/OUTPUT/BaseLib.lib(SafeString.obj)
                              (--whole-archive)
/home/naoki/edk2/xv6_bootloader/build/RELEASE_GCC5/IA32/MdePkg/Library/BaseLib/BaseLib/OUTPUT/BaseLib.lib(String.obj)
                              (--whole-archive)
/home/naoki/edk2/xv6_bootloader/build/RELEASE_GCC5/IA32/MdePkg/Library/BaseLib/BaseLib/OUTPUT/BaseLib.lib(FilePaths.obj)
                              (--whole-archive)
/home/naoki/edk2/xv6_bootloader/build/RELEASE_GCC5/IA32/MdePkg/Library/BaseLib/BaseLib/OUTPUT/BaseLib.lib(WriteTr.obj)
                              (--whole-archive)
/home/naoki/edk2/xv6_bootloader/build/RELEASE_GCC5/IA32/MdePkg/Library/BaseLib/BaseLib/OUTPUT/BaseLib.lib(GccInline.obj)
                              (--whole-archive)
/home/naoki/edk2/xv6_bootloader/build/RELEASE_GCC5/IA32/MdePkg/Library/BaseLib/BaseLib/OUTPUT/BaseLib.lib(Thunk16.obj)
                              (--whole-archive)
/home/naoki/edk2/xv6_bootloader/build/RELEASE_GCC5/IA32/MdePkg/Library/BaseLib/BaseLib/OUTPUT/BaseLib.lib(EnableDisableInterrupts.obj)
                              (--whole-archive)
/home/naoki/edk2/xv6_bootloader/build/RELEASE_GCC5/IA32/MdePkg/Library/BaseLib/BaseLib/OUTPUT/BaseLib.lib(EnablePaging64.obj)
                              (--whole-archive)
/home/naoki/edk2/xv6_bootloader/build/RELEASE_GCC5/IA32/MdePkg/Library/BaseLib/BaseLib/OUTPUT/BaseLib.lib(DisablePaging32.obj)
                              (--whole-archive)
/home/naoki/edk2/xv6_bootloader/build/RELEASE_GCC5/IA32/MdePkg/Library/BaseLib/BaseLib/OUTPUT/BaseLib.lib(EnablePaging32.obj)
                              (--whole-archive)
/home/naoki/edk2/xv6_bootloader/build/RELEASE_GCC5/IA32/MdePkg/Library/BaseLib/BaseLib/OUTPUT/BaseLib.lib(Mwait.obj)
                              (--whole-archive)
/home/naoki/edk2/xv6_bootloader/build/RELEASE_GCC5/IA32/MdePkg/Library/BaseLib/BaseLib/OUTPUT/BaseLib.lib(Monitor.obj)
                              (--whole-archive)
/home/naoki/edk2/xv6_bootloader/build/RELEASE_GCC5/IA32/MdePkg/Library/BaseLib/BaseLib/OUTPUT/BaseLib.lib(CpuIdEx.obj)
                              (--whole-archive)
/home/naoki/edk2/xv6_bootloader/build/RELEASE_GCC5/IA32/MdePkg/Library/BaseLib/BaseLib/OUTPUT/BaseLib.lib(CpuId.obj)
                              (--whole-archive)
/home/naoki/edk2/xv6_bootloader/build/RELEASE_GCC5/IA32/MdePkg/Library/BaseLib/BaseLib/OUTPUT/BaseLib.lib(LongJump.obj)
                              (--whole-archive)
/home/naoki/edk2/xv6_bootloader/build/RELEASE_GCC5/IA32/MdePkg/Library/BaseLib/BaseLib/OUTPUT/BaseLib.lib(SetJump.obj)
                              (--whole-archive)
/home/naoki/edk2/xv6_bootloader/build/RELEASE_GCC5/IA32/MdePkg/Library/BaseLib/BaseLib/OUTPUT/BaseLib.lib(SwapBytes64.obj)
                              (--whole-archive)
/home/naoki/edk2/xv6_bootloader/build/RELEASE_GCC5/IA32/MdePkg/Library/BaseLib/BaseLib/OUTPUT/BaseLib.lib(DivU64x64Remainder.obj)
                              (--whole-archive)
/home/naoki/edk2/xv6_bootloader/build/RELEASE_GCC5/IA32/MdePkg/Library/BaseLib/BaseLib/OUTPUT/BaseLib.lib(DivU64x32Remainder.obj)
                              (--whole-archive)
/home/naoki/edk2/xv6_bootloader/build/RELEASE_GCC5/IA32/MdePkg/Library/BaseLib/BaseLib/OUTPUT/BaseLib.lib(ModU64x32.obj)
                              (--whole-archive)
/home/naoki/edk2/xv6_bootloader/build/RELEASE_GCC5/IA32/MdePkg/Library/BaseLib/BaseLib/OUTPUT/BaseLib.lib(DivU64x32.obj)
                              (--whole-archive)
/home/naoki/edk2/xv6_bootloader/build/RELEASE_GCC5/IA32/MdePkg/Library/BaseLib/BaseLib/OUTPUT/BaseLib.lib(MultU64x64.obj)
                              (--whole-archive)
/home/naoki/edk2/xv6_bootloader/build/RELEASE_GCC5/IA32/MdePkg/Library/BaseLib/BaseLib/OUTPUT/BaseLib.lib(MultU64x32.obj)
                              (--whole-archive)
/home/naoki/edk2/xv6_bootloader/build/RELEASE_GCC5/IA32/MdePkg/Library/BaseLib/BaseLib/OUTPUT/BaseLib.lib(RRotU64.obj)
                              (--whole-archive)
/home/naoki/edk2/xv6_bootloader/build/RELEASE_GCC5/IA32/MdePkg/Library/BaseLib/BaseLib/OUTPUT/BaseLib.lib(LRotU64.obj)
                              (--whole-archive)
/home/naoki/edk2/xv6_bootloader/build/RELEASE_GCC5/IA32/MdePkg/Library/BaseLib/BaseLib/OUTPUT/BaseLib.lib(ARShiftU64.obj)
                              (--whole-archive)
/home/naoki/edk2/xv6_bootloader/build/RELEASE_GCC5/IA32/MdePkg/Library/BaseLib/BaseLib/OUTPUT/BaseLib.lib(RShiftU64.obj)
                              (--whole-archive)
/home/naoki/edk2/xv6_bootloader/build/RELEASE_GCC5/IA32/MdePkg/Library/BaseLib/BaseLib/OUTPUT/BaseLib.lib(LShiftU64.obj)
                              (--whole-archive)
/home/naoki/edk2/xv6_bootloader/build/RELEASE_GCC5/IA32/MdePkg/Library/BaseLib/BaseLib/OUTPUT/BaseLib.lib(EnableCache.obj)
                              (--whole-archive)
/home/naoki/edk2/xv6_bootloader/build/RELEASE_GCC5/IA32/MdePkg/Library/BaseLib/BaseLib/OUTPUT/BaseLib.lib(DisableCache.obj)
                              (--whole-archive)
/home/naoki/edk2/xv6_bootloader/build/RELEASE_GCC5/IA32/MdePkg/Library/BaseLib/BaseLib/OUTPUT/BaseLib.lib(RdRand.obj)
                              (--whole-archive)
/home/naoki/edk2/xv6_bootloader/build/RELEASE_GCC5/IA32/MdePkg/Library/BaseLib/BaseLib/OUTPUT/BaseLib.lib(DivS64x64Remainder.obj)
                              (--whole-archive)
/home/naoki/edk2/xv6_bootloader/build/RELEASE_GCC5/IA32/MdePkg/Library/BaseLib/BaseLib/OUTPUT/BaseLib.lib(InternalSwitchStack.obj)
                              (--whole-archive)
/home/naoki/edk2/xv6_bootloader/build/RELEASE_GCC5/IA32/MdePkg/Library/BaseLib/BaseLib/OUTPUT/BaseLib.lib(Non-existing.obj)
                              (--whole-archive)
/home/naoki/edk2/xv6_bootloader/build/RELEASE_GCC5/IA32/MdePkg/Library/BaseLib/BaseLib/OUTPUT/BaseLib.lib(Unaligned.obj)
                              (--whole-archive)
/home/naoki/edk2/xv6_bootloader/build/RELEASE_GCC5/IA32/MdePkg/Library/BaseLib/BaseLib/OUTPUT/BaseLib.lib(X86WriteIdtr.obj)
                              (--whole-archive)
/home/naoki/edk2/xv6_bootloader/build/RELEASE_GCC5/IA32/MdePkg/Library/BaseLib/BaseLib/OUTPUT/BaseLib.lib(X86WriteGdtr.obj)
                              (--whole-archive)
/home/naoki/edk2/xv6_bootloader/build/RELEASE_GCC5/IA32/MdePkg/Library/BaseLib/BaseLib/OUTPUT/BaseLib.lib(X86Thunk.obj)
                              (--whole-archive)
/home/naoki/edk2/xv6_bootloader/build/RELEASE_GCC5/IA32/MdePkg/Library/BaseLib/BaseLib/OUTPUT/BaseLib.lib(X86ReadIdtr.obj)
                              (--whole-archive)
/home/naoki/edk2/xv6_bootloader/build/RELEASE_GCC5/IA32/MdePkg/Library/BaseLib/BaseLib/OUTPUT/BaseLib.lib(X86ReadGdtr.obj)
                              (--whole-archive)
/home/naoki/edk2/xv6_bootloader/build/RELEASE_GCC5/IA32/MdePkg/Library/BaseLib/BaseLib/OUTPUT/BaseLib.lib(X86Msr.obj)
                              (--whole-archive)
/home/naoki/edk2/xv6_bootloader/build/RELEASE_GCC5/IA32/MdePkg/Library/BaseLib/BaseLib/OUTPUT/BaseLib.lib(X86GetInterruptState.obj)
                              (--whole-archive)
/home/naoki/edk2/xv6_bootloader/build/RELEASE_GCC5/IA32/MdePkg/Library/BaseLib/BaseLib/OUTPUT/BaseLib.lib(X86FxSave.obj)
                              (--whole-archive)
/home/naoki/edk2/xv6_bootloader/build/RELEASE_GCC5/IA32/MdePkg/Library/BaseLib/BaseLib/OUTPUT/BaseLib.lib(X86FxRestore.obj)
                              (--whole-archive)
/home/naoki/edk2/xv6_bootloader/build/RELEASE_GCC5/IA32/MdePkg/Library/BaseLib/BaseLib/OUTPUT/BaseLib.lib(X86EnablePaging64.obj)
                              (--whole-archive)
/home/naoki/edk2/xv6_bootloader/build/RELEASE_GCC5/IA32/MdePkg/Library/BaseLib/BaseLib/OUTPUT/BaseLib.lib(X86EnablePaging32.obj)
                              (--whole-archive)
/home/naoki/edk2/xv6_bootloader/build/RELEASE_GCC5/IA32/MdePkg/Library/BaseLib/BaseLib/OUTPUT/BaseLib.lib(X86DisablePaging64.obj)
                              (--whole-archive)
/home/naoki/edk2/xv6_bootloader/build/RELEASE_GCC5/IA32/MdePkg/Library/BaseLib/BaseLib/OUTPUT/BaseLib.lib(X86DisablePaging32.obj)
                              (--whole-archive)
/home/naoki/edk2/xv6_bootloader/build/RELEASE_GCC5/IA32/MdePkg/Library/BaseLib/BaseLib/OUTPUT/BaseLib.lib(X86RdRand.obj)
                              (--whole-archive)
/home/naoki/edk2/xv6_bootloader/build/RELEASE_GCC5/IA32/MdePkg/Library/BaseLib/BaseLib/OUTPUT/BaseLib.lib(X86PatchInstruction.obj)
                              (--whole-archive)
/home/naoki/edk2/xv6_bootloader/build/RELEASE_GCC5/IA32/MdePkg/Library/UefiDebugLibConOut/UefiDebugLibConOut/OUTPUT/UefiDebugLibConOut.lib(DebugLib.obj)
                              (--whole-archive)
/home/naoki/edk2/xv6_bootloader/build/RELEASE_GCC5/IA32/MdePkg/Library/UefiBootServicesTableLib/UefiBootServicesTableLib/OUTPUT/UefiBootServicesTableLib.lib(UefiBootServicesTableLib.obj)
                              (--whole-archive)
/home/naoki/edk2/xv6_bootloader/build/RELEASE_GCC5/IA32/MdePkg/Library/UefiMemoryAllocationLib/UefiMemoryAllocationLib/OUTPUT/UefiMemoryAllocationLib.lib(MemoryAllocationLib.obj)
                              (--whole-archive)
/home/naoki/edk2/xv6_bootloader/build/RELEASE_GCC5/IA32/MdePkg/Library/UefiRuntimeServicesTableLib/UefiRuntimeServicesTableLib/OUTPUT/UefiRuntimeServicesTableLib.lib(UefiRuntimeServicesTableLib.obj)
                              (--whole-archive)
/home/naoki/edk2/xv6_bootloader/build/RELEASE_GCC5/IA32/MdePkg/Library/UefiDevicePathLib/UefiDevicePathLib/OUTPUT/UefiDevicePathLib.lib(DevicePathUtilities.obj)
                              (--whole-archive)
/home/naoki/edk2/xv6_bootloader/build/RELEASE_GCC5/IA32/MdePkg/Library/UefiDevicePathLib/UefiDevicePathLib/OUTPUT/UefiDevicePathLib.lib(DevicePathToText.obj)
                              (--whole-archive)
/home/naoki/edk2/xv6_bootloader/build/RELEASE_GCC5/IA32/MdePkg/Library/UefiDevicePathLib/UefiDevicePathLib/OUTPUT/UefiDevicePathLib.lib(DevicePathFromText.obj)
                              (--whole-archive)
/home/naoki/edk2/xv6_bootloader/build/RELEASE_GCC5/IA32/MdePkg/Library/UefiDevicePathLib/UefiDevicePathLib/OUTPUT/UefiDevicePathLib.lib(UefiDevicePathLib.obj)
                              (--whole-archive)
/home/naoki/edk2/xv6_bootloader/build/RELEASE_GCC5/IA32/MdePkg/Library/UefiLib/UefiLib/OUTPUT/UefiLib.lib(UefiLibPrint.obj)
                              (--whole-archive)
/home/naoki/edk2/xv6_bootloader/build/RELEASE_GCC5/IA32/MdePkg/Library/UefiLib/UefiLib/OUTPUT/UefiLib.lib(UefiNotTiano.obj)
                              (--whole-archive)
/home/naoki/edk2/xv6_bootloader/build/RELEASE_GCC5/IA32/MdePkg/Library/UefiLib/UefiLib/OUTPUT/UefiLib.lib(UefiDriverModel.obj)
                              (--whole-archive)
/home/naoki/edk2/xv6_bootloader/build/RELEASE_GCC5/IA32/MdePkg/Library/UefiLib/UefiLib/OUTPUT/UefiLib.lib(Console.obj)
                              (--whole-archive)
/home/naoki/edk2/xv6_bootloader/build/RELEASE_GCC5/IA32/MdePkg/Library/UefiLib/UefiLib/OUTPUT/UefiLib.lib(UefiLib.obj)
                              (--whole-archive)
/home/naoki/edk2/xv6_bootloader/build/RELEASE_GCC5/IA32/MdePkg/Library/UefiApplicationEntryPoint/UefiApplicationEntryPoint/OUTPUT/UefiApplicationEntryPoint.lib(ApplicationEntryPoint.obj)
                              (--whole-archive)
/home/naoki/edk2/xv6_bootloader/build/RELEASE_GCC5/IA32/xv6_bootloader/loader/OUTPUT/loader.lib(loader.obj)
                              (--whole-archive)
/home/naoki/edk2/xv6_bootloader/build/RELEASE_GCC5/IA32/xv6_bootloader/loader/OUTPUT/loader.lib(AutoGen.obj)
                              (--whole-archive)
/home/naoki/edk2/xv6_bootloader/build/RELEASE_GCC5/IA32/xv6_bootloader/loader/OUTPUT/loader.lib(MemoryMap.obj)
                              (--whole-archive)

破棄された入力セクション

 .comment       0x0000000000000000      0x999 /tmp/ccboSG0Ydebugobj
 .note.GNU-stack
                0x0000000000000000        0x0 /tmp/ccboSG0Ydebugobj
 .debug_abbrev  0x0000000000000000     0x6365 /tmp/ccboSG0Ydebugobj
 .debug_line    0x0000000000000000     0x91f9 /tmp/ccboSG0Ydebugobj
 .debug_str     0x0000000000000000    0x353de /tmp/ccboSG0Ydebugobj
 .text          0x0000000000000000        0x0 /tmp/ccviENyE.ltrans0.ltrans.o
 .data          0x0000000000000000        0x0 /tmp/ccviENyE.ltrans0.ltrans.o
 .bss           0x0000000000000000        0x0 /tmp/ccviENyE.ltrans0.ltrans.o
 .rodata.DebugPrint.constprop.2.str1.1
                0x0000000000000000       0x21 /tmp/ccviENyE.ltrans0.ltrans.o
 .text.DebugPrint.constprop.2
                0x0000000000000000       0x4c /tmp/ccviENyE.ltrans0.ltrans.o
 .rodata.InternalAssertJumpBuffer.str1.1
                0x0000000000000000       0x70 /tmp/ccviENyE.ltrans0.ltrans.o
 .text.InternalAssertJumpBuffer
                0x0000000000000000       0x3c /tmp/ccviENyE.ltrans0.ltrans.o
 .comment       0x0000000000000000       0x1b /tmp/ccviENyE.ltrans0.ltrans.o
 .note.GNU-stack
                0x0000000000000000        0x0 /tmp/ccviENyE.ltrans0.ltrans.o
 .text          0x0000000000000000        0x8 /home/naoki/edk2/xv6_bootloader/build/RELEASE_GCC5/IA32/MdePkg/Library/BaseLib/BaseLib/OUTPUT/BaseLib.lib(WriteTr.obj)
 .text          0x0000000000000000      0x168 /home/naoki/edk2/xv6_bootloader/build/RELEASE_GCC5/IA32/MdePkg/Library/BaseLib/BaseLib/OUTPUT/BaseLib.lib(Thunk16.obj)
 .data          0x0000000000000000        0xa /home/naoki/edk2/xv6_bootloader/build/RELEASE_GCC5/IA32/MdePkg/Library/BaseLib/BaseLib/OUTPUT/BaseLib.lib(Thunk16.obj)
 .text          0x0000000000000000        0x3 /home/naoki/edk2/xv6_bootloader/build/RELEASE_GCC5/IA32/MdePkg/Library/BaseLib/BaseLib/OUTPUT/BaseLib.lib(EnableDisableInterrupts.obj)
 .text          0x0000000000000000       0x45 /home/naoki/edk2/xv6_bootloader/build/RELEASE_GCC5/IA32/MdePkg/Library/BaseLib/BaseLib/OUTPUT/BaseLib.lib(EnablePaging64.obj)
 .text          0x0000000000000000       0x25 /home/naoki/edk2/xv6_bootloader/build/RELEASE_GCC5/IA32/MdePkg/Library/BaseLib/BaseLib/OUTPUT/BaseLib.lib(DisablePaging32.obj)
 .text          0x0000000000000000       0x25 /home/naoki/edk2/xv6_bootloader/build/RELEASE_GCC5/IA32/MdePkg/Library/BaseLib/BaseLib/OUTPUT/BaseLib.lib(EnablePaging32.obj)
 .text          0x0000000000000000        0xc /home/naoki/edk2/xv6_bootloader/build/RELEASE_GCC5/IA32/MdePkg/Library/BaseLib/BaseLib/OUTPUT/BaseLib.lib(Mwait.obj)
 .text          0x0000000000000000       0x10 /home/naoki/edk2/xv6_bootloader/build/RELEASE_GCC5/IA32/MdePkg/Library/BaseLib/BaseLib/OUTPUT/BaseLib.lib(Monitor.obj)
 .text          0x0000000000000000       0x2f /home/naoki/edk2/xv6_bootloader/build/RELEASE_GCC5/IA32/MdePkg/Library/BaseLib/BaseLib/OUTPUT/BaseLib.lib(CpuIdEx.obj)
 .text          0x0000000000000000       0x2c /home/naoki/edk2/xv6_bootloader/build/RELEASE_GCC5/IA32/MdePkg/Library/BaseLib/BaseLib/OUTPUT/BaseLib.lib(CpuId.obj)
 .text          0x0000000000000000       0x14 /home/naoki/edk2/xv6_bootloader/build/RELEASE_GCC5/IA32/MdePkg/Library/BaseLib/BaseLib/OUTPUT/BaseLib.lib(LongJump.obj)
 .text          0x0000000000000000       0x23 /home/naoki/edk2/xv6_bootloader/build/RELEASE_GCC5/IA32/MdePkg/Library/BaseLib/BaseLib/OUTPUT/BaseLib.lib(SetJump.obj)
 .text          0x0000000000000000        0xd /home/naoki/edk2/xv6_bootloader/build/RELEASE_GCC5/IA32/MdePkg/Library/BaseLib/BaseLib/OUTPUT/BaseLib.lib(SwapBytes64.obj)
 .text          0x0000000000000000       0x79 /home/naoki/edk2/xv6_bootloader/build/RELEASE_GCC5/IA32/MdePkg/Library/BaseLib/BaseLib/OUTPUT/BaseLib.lib(DivU64x64Remainder.obj)
 .text          0x0000000000000000       0x15 /home/naoki/edk2/xv6_bootloader/build/RELEASE_GCC5/IA32/MdePkg/Library/BaseLib/BaseLib/OUTPUT/BaseLib.lib(ModU64x32.obj)
 .text          0x0000000000000000       0x15 /home/naoki/edk2/xv6_bootloader/build/RELEASE_GCC5/IA32/MdePkg/Library/BaseLib/BaseLib/OUTPUT/BaseLib.lib(DivU64x32.obj)
 .text          0x0000000000000000       0x1f /home/naoki/edk2/xv6_bootloader/build/RELEASE_GCC5/IA32/MdePkg/Library/BaseLib/BaseLib/OUTPUT/BaseLib.lib(MultU64x64.obj)
 .text          0x0000000000000000       0x12 /home/naoki/edk2/xv6_bootloader/build/RELEASE_GCC5/IA32/MdePkg/Library/BaseLib/BaseLib/OUTPUT/BaseLib.lib(MultU64x32.obj)
 .text          0x0000000000000000       0x25 /home/naoki/edk2/xv6_bootloader/build/RELEASE_GCC5/IA32/MdePkg/Library/BaseLib/BaseLib/OUTPUT/BaseLib.lib(RRotU64.obj)
 .text          0x0000000000000000       0x25 /home/naoki/edk2/xv6_bootloader/build/RELEASE_GCC5/IA32/MdePkg/Library/BaseLib/BaseLib/OUTPUT/BaseLib.lib(LRotU64.obj)
 .text          0x0000000000000000       0x1a /home/naoki/edk2/xv6_bootloader/build/RELEASE_GCC5/IA32/MdePkg/Library/BaseLib/BaseLib/OUTPUT/BaseLib.lib(ARShiftU64.obj)
 .text          0x0000000000000000       0x1b /home/naoki/edk2/xv6_bootloader/build/RELEASE_GCC5/IA32/MdePkg/Library/BaseLib/BaseLib/OUTPUT/BaseLib.lib(RShiftU64.obj)
 .text          0x0000000000000000       0x1b /home/naoki/edk2/xv6_bootloader/build/RELEASE_GCC5/IA32/MdePkg/Library/BaseLib/BaseLib/OUTPUT/BaseLib.lib(LShiftU64.obj)
 .text          0x0000000000000000       0x11 /home/naoki/edk2/xv6_bootloader/build/RELEASE_GCC5/IA32/MdePkg/Library/BaseLib/BaseLib/OUTPUT/BaseLib.lib(EnableCache.obj)
 .text          0x0000000000000000       0x11 /home/naoki/edk2/xv6_bootloader/build/RELEASE_GCC5/IA32/MdePkg/Library/BaseLib/BaseLib/OUTPUT/BaseLib.lib(DisableCache.obj)
 .text          0x0000000000000000       0x45 /home/naoki/edk2/xv6_bootloader/build/RELEASE_GCC5/IA32/MdePkg/Library/BaseLib/BaseLib/OUTPUT/BaseLib.lib(RdRand.obj)
 .text          0x0000000000000000       0x1b /home/naoki/edk2/xv6_bootloader/build/RELEASE_GCC5/IA32/MdePkg/Library/BaseLib/BaseLib/OUTPUT/BaseLib.lib(InternalSwitchStack.obj)

メモリ設定

名前           原点             長さ             属性
*default*        0x0000000000000000 0xffffffffffffffff

リンカスクリプトおよびメモリマップ

LOAD /tmp/ccboSG0Ydebugobj
LOAD /tmp/ccviENyE.ltrans0.ltrans.o
START GROUP
LOAD /home/naoki/edk2/xv6_bootloader/build/RELEASE_GCC5/IA32/MdePkg/Library/BaseDebugPrintErrorLevelLib/BaseDebugPrintErrorLevelLib/OUTPUT/BaseDebugPrintErrorLevelLib.lib
LOAD /home/naoki/edk2/xv6_bootloader/build/RELEASE_GCC5/IA32/MdePkg/Library/BasePrintLib/BasePrintLib/OUTPUT/BasePrintLib.lib
LOAD /home/naoki/edk2/xv6_bootloader/build/RELEASE_GCC5/IA32/MdePkg/Library/BaseMemoryLib/BaseMemoryLib/OUTPUT/BaseMemoryLib.lib
LOAD /home/naoki/edk2/xv6_bootloader/build/RELEASE_GCC5/IA32/MdePkg/Library/BasePcdLibNull/BasePcdLibNull/OUTPUT/BasePcdLibNull.lib
LOAD /home/naoki/edk2/xv6_bootloader/build/RELEASE_GCC5/IA32/MdePkg/Library/BaseLib/BaseLib/OUTPUT/BaseLib.lib
LOAD /home/naoki/edk2/xv6_bootloader/build/RELEASE_GCC5/IA32/MdePkg/Library/UefiDebugLibConOut/UefiDebugLibConOut/OUTPUT/UefiDebugLibConOut.lib
LOAD /home/naoki/edk2/xv6_bootloader/build/RELEASE_GCC5/IA32/MdePkg/Library/UefiBootServicesTableLib/UefiBootServicesTableLib/OUTPUT/UefiBootServicesTableLib.lib
LOAD /home/naoki/edk2/xv6_bootloader/build/RELEASE_GCC5/IA32/MdePkg/Library/UefiMemoryAllocationLib/UefiMemoryAllocationLib/OUTPUT/UefiMemoryAllocationLib.lib
LOAD /home/naoki/edk2/xv6_bootloader/build/RELEASE_GCC5/IA32/MdePkg/Library/UefiRuntimeServicesTableLib/UefiRuntimeServicesTableLib/OUTPUT/UefiRuntimeServicesTableLib.lib
LOAD /home/naoki/edk2/xv6_bootloader/build/RELEASE_GCC5/IA32/MdePkg/Library/UefiDevicePathLib/UefiDevicePathLib/OUTPUT/UefiDevicePathLib.lib
LOAD /home/naoki/edk2/xv6_bootloader/build/RELEASE_GCC5/IA32/MdePkg/Library/UefiLib/UefiLib/OUTPUT/UefiLib.lib
LOAD /home/naoki/edk2/xv6_bootloader/build/RELEASE_GCC5/IA32/MdePkg/Library/UefiApplicationEntryPoint/UefiApplicationEntryPoint/OUTPUT/UefiApplicationEntryPoint.lib
LOAD /home/naoki/edk2/xv6_bootloader/build/RELEASE_GCC5/IA32/xv6_bootloader/loader/OUTPUT/loader.lib
END GROUP
                0x0000000000000220                PECOFF_HEADER_SIZE = 0x220
                0x0000000000000220                . = PECOFF_HEADER_SIZE

.text           0x0000000000000240     0x27bc
 *(.text .text.* .stub .gnu.linkonce.t.*)
 .text.DebugAssertEnabled
                0x0000000000000240        0x3 /tmp/ccviENyE.ltrans0.ltrans.o
 .text.AsciiStrnLenS
                0x0000000000000243       0x29 /tmp/ccviENyE.ltrans0.ltrans.o
 .text.BasePrintLibFillBuffer
                0x000000000000026c       0x34 /tmp/ccviENyE.ltrans0.ltrans.o
 .text.BasePrintLibSPrintMarker.constprop.8
                0x00000000000002a0      0xcd6 /tmp/ccviENyE.ltrans0.ltrans.o
 .text.BasePrintLibSPrint.constprop.9
                0x0000000000000f76       0x21 /tmp/ccviENyE.ltrans0.ltrans.o
 .text.AsciiSPrint.constprop.5
                0x0000000000000f97       0x23 /tmp/ccviENyE.ltrans0.ltrans.o
 .text.UnicodeVSPrintAsciiFormat
                0x0000000000000fba       0x5c /tmp/ccviENyE.ltrans0.ltrans.o
 .text.UnicodeSPrintAsciiFormat.constprop.7
                0x0000000000001016       0x21 /tmp/ccviENyE.ltrans0.ltrans.o
 .text.DebugAssert
                0x0000000000001037       0x50 /tmp/ccviENyE.ltrans0.ltrans.o
 .text.ReadUnaligned16
                0x0000000000001087        0xb /tmp/ccviENyE.ltrans0.ltrans.o
 .text.StrnLenS
                0x0000000000001092       0x58 /tmp/ccviENyE.ltrans0.ltrans.o
 .text.Print    0x00000000000010ea      0x139 /tmp/ccviENyE.ltrans0.ltrans.o
 .text.UefiMain
                0x0000000000001223      0x59b /tmp/ccviENyE.ltrans0.ltrans.o
 .text._ModuleEntryPoint
                0x00000000000017be       0xbb /tmp/ccviENyE.ltrans0.ltrans.o
                0x00000000000017be                _ModuleEntryPoint
 *fill*         0x0000000000001879        0x7 
 .text          0x0000000000001880       0x1d /home/naoki/edk2/xv6_bootloader/build/RELEASE_GCC5/IA32/MdePkg/Library/BaseLib/BaseLib/OUTPUT/BaseLib.lib(DivU64x32Remainder.obj)
                0x0000000000001880                InternalMathDivRemU64x32
 *(.rodata .rodata.* .gnu.linkonce.r.*)
 .rodata.BasePrintLibSPrintMarker.constprop.8.str1.1
                0x000000000000189d      0x297 /tmp/ccviENyE.ltrans0.ltrans.o
 .rodata.AsciiSPrint.constprop.5.str1.1
                0x0000000000001b34       0x38 /tmp/ccviENyE.ltrans0.ltrans.o
 .rodata.UnicodeVSPrintAsciiFormat.str1.1
                0x0000000000001b6c       0x60 /tmp/ccviENyE.ltrans0.ltrans.o
 .rodata.UnicodeSPrintAsciiFormat.constprop.7.str1.1
                0x0000000000001bcc       0x18 /tmp/ccviENyE.ltrans0.ltrans.o
 .rodata.DebugAssert.str1.1
                0x0000000000001be4        0x7 /tmp/ccviENyE.ltrans0.ltrans.o
 .rodata.StrnLenS.str1.1
                0x0000000000001beb       0x58 /tmp/ccviENyE.ltrans0.ltrans.o
 .rodata.Print.str1.1
                0x0000000000001c43       0xfb /tmp/ccviENyE.ltrans0.ltrans.o
 .rodata.UefiMain.str2.2
                0x0000000000001d3e      0x4de /tmp/ccviENyE.ltrans0.ltrans.o
                                        0x4e8 (緩和前のサイズ)
 .rodata.UefiMain.str1.1
                0x000000000000221c      0x146 /tmp/ccviENyE.ltrans0.ltrans.o
 .rodata._ModuleEntryPoint.str1.1
                0x0000000000002362      0x107 /tmp/ccviENyE.ltrans0.ltrans.o
 *fill*         0x0000000000002469        0x1 
 .rodata.str2.2
                0x000000000000246a      0x266 /tmp/ccviENyE.ltrans0.ltrans.o
 *fill*         0x00000000000026d0       0x10 
 .rodata.CSWTCH.10
                0x00000000000026e0       0x40 /tmp/ccviENyE.ltrans0.ltrans.o
 .rodata.mHexStr
                0x0000000000002720       0x10 /tmp/ccviENyE.ltrans0.ltrans.o
 .rodata.str1.1
                0x0000000000002730      0x224 /tmp/ccviENyE.ltrans0.ltrans.o
                                        0x235 (緩和前のサイズ)
 *fill*         0x0000000000002954        0xc 
 .rodata.mStatusString
                0x0000000000002960       0x9c /tmp/ccviENyE.ltrans0.ltrans.o
 *(.got .got.*)
 .got           0x00000000000029fc        0x0 /home/naoki/edk2/xv6_bootloader/build/RELEASE_GCC5/IA32/MdePkg/Library/BaseLib/BaseLib/OUTPUT/BaseLib.lib(WriteTr.obj)
 .got.plt       0x00000000000029fc        0x0 /home/naoki/edk2/xv6_bootloader/build/RELEASE_GCC5/IA32/MdePkg/Library/BaseLib/BaseLib/OUTPUT/BaseLib.lib(WriteTr.obj)
                0x00000000000029fc                _GLOBAL_OFFSET_TABLE_
 *:AutoGen.obj(.data.g*Guid)

.iplt           0x0000000000002a00        0x0
 .iplt          0x0000000000002a00        0x0 /home/naoki/edk2/xv6_bootloader/build/RELEASE_GCC5/IA32/MdePkg/Library/BaseLib/BaseLib/OUTPUT/BaseLib.lib(WriteTr.obj)

.data           0x0000000000002a00       0x30
 *(.data .data.* .gnu.linkonce.d.*)
 .data.gEfiFileInfoGuid
                0x0000000000002a00       0x10 /tmp/ccviENyE.ltrans0.ltrans.o
 .data.gEfiSimpleFileSystemProtocolGuid
                0x0000000000002a10       0x10 /tmp/ccviENyE.ltrans0.ltrans.o
 *(.bss .bss.*)
 .bss.gImageHandle
                0x0000000000002a20        0x4 /tmp/ccviENyE.ltrans0.ltrans.o
 .bss.gRT       0x0000000000002a24        0x4 /tmp/ccviENyE.ltrans0.ltrans.o
 .bss.gBS       0x0000000000002a28        0x4 /tmp/ccviENyE.ltrans0.ltrans.o
 .bss.gST       0x0000000000002a2c        0x4 /tmp/ccviENyE.ltrans0.ltrans.o

.igot.plt       0x0000000000002a30        0x0
 .igot.plt      0x0000000000002a30        0x0 /home/naoki/edk2/xv6_bootloader/build/RELEASE_GCC5/IA32/MdePkg/Library/BaseLib/BaseLib/OUTPUT/BaseLib.lib(WriteTr.obj)

.rel.dyn        0x0000000000002a30        0x0
 .rel.got       0x0000000000002a30        0x0 /home/naoki/edk2/xv6_bootloader/build/RELEASE_GCC5/IA32/MdePkg/Library/BaseLib/BaseLib/OUTPUT/BaseLib.lib(WriteTr.obj)
 .rel.iplt      0x0000000000002a30        0x0 /home/naoki/edk2/xv6_bootloader/build/RELEASE_GCC5/IA32/MdePkg/Library/BaseLib/BaseLib/OUTPUT/BaseLib.lib(WriteTr.obj)

.eh_frame
 *(.eh_frame)

.rela
 *(.rela .rela.*)

.hii
 *(.hii)

.build-id       0x0000000000002a30       0x24
 *(.note.gnu.build-id)
 .note.gnu.build-id
                0x0000000000002a30       0x24 BaseDebugPrintErrorLevelLib.obj (symbol from plugin)

/DISCARD/
 *(.note.GNU-stack)
 *(.gnu_debuglink)
 *(.interp)
 *(.dynsym)
 *(.dynstr)
 *(.dynamic)
 *(.hash .gnu.hash)
 *(.comment)
 *(COMMON)
OUTPUT(/home/naoki/edk2/xv6_bootloader/build/RELEASE_GCC5/IA32/xv6_bootloader/loader/DEBUG/loader.dll elf32-i386)

.debug_info     0x0000000000000000    0x35d01
 .debug_info    0x0000000000000000    0x34838 /tmp/ccboSG0Ydebugobj
                0x0000000000000000                BaseDebugPrintErrorLevelLib.c.a9dd0701
                0x0000000000000238                PrintLibInternal.c.39fe21ab
                0x0000000000000a2a                PrintLib.c.68e3ab52
                0x00000000000011b9                SetMem.c.f41b8a33
                0x000000000000143f                ScanMem64Wrapper.c.61e77389
                0x000000000000167b                ScanMem32Wrapper.c.0c5a5aa2
                0x00000000000018b7                ScanMem16Wrapper.c.4fad0152
                0x0000000000001af3                ScanMem8Wrapper.c.dfa4e088
                0x0000000000001d60                ZeroMemWrapper.c.3c52c60c
                0x0000000000001f85                CompareMemWrapper.c.23778148
                0x00000000000021d7                SetMem64Wrapper.c.6790189d
                0x0000000000002408                SetMem32Wrapper.c.081f70b6
                0x0000000000002639                SetMem16Wrapper.c.b79829b0
                0x000000000000286a                SetMemWrapper.c.2920841c
                0x0000000000002ad0                CopyMemWrapper.c.64e1ae17
                0x0000000000002d0c                IsZeroBufferWrapper.c.d709110a
                0x0000000000002f3a                MemLibGeneric.c.cc3c36f4
                0x00000000000033d4                MemLibGuid.c.9b3a3522
                0x00000000000036e4                CopyMem.c.97623cfc
                0x00000000000039aa                PcdLib.c.991e22aa
                0x00000000000045de                CheckSum.c.7d4fb8af
                0x0000000000004ad4                SwitchStack.c.489f0201
                0x0000000000004dab                SwapBytes64.c.1a5144ed
                0x000000000000500d                SwapBytes32.c.54b0ce5d
                0x0000000000005287                SwapBytes16.c.cd5440da
                0x00000000000054e9                LongJump.c.5985005e
                0x00000000000057cd                SetJump.c.57cd35ce
                0x0000000000005aa5                RShiftU64.c.baef76f9
                0x0000000000005d1f                RRotU64.c.46a8ad83
                0x0000000000005f99                RRotU32.c.70eb8e3a
                0x0000000000006213                MultU64x64.c.ab3a8dfe
                0x000000000000648d                MultU64x32.c.1de24b3e
                0x0000000000006707                MultS64x64.c.68b728e3
                0x0000000000006981                ModU64x32.c.97bb6419
                0x0000000000006bef                LShiftU64.c.cb85878a
                0x0000000000006e69                LRotU64.c.2a98305f
                0x00000000000070e3                LRotU32.c.4a8d74ef
                0x000000000000735d                LowBitSet64.c.69f9bb78
                0x00000000000075e3                LowBitSet32.c.e0e487e7
                0x0000000000007869                HighBitSet64.c.6d950f70
                0x0000000000007ae3                HighBitSet32.c.c1c84757
                0x0000000000007d69                GetPowerOfTwo64.c.8fb1eaab
                0x0000000000007fd7                GetPowerOfTwo32.c.caa247d9
                0x0000000000008239                DivU64x64Remainder.c.b0481ca7
                0x00000000000084bd                DivU64x32Remainder.c.6e18e09a
                0x0000000000008741                DivU64x32.c.d735911b
                0x00000000000089af                DivS64x64Remainder.c.b6e49acd
                0x0000000000008c3f                ARShiftU64.c.1d9de493
                0x0000000000008eb9                BitField.c.005de5c5
                0x000000000000975f                CpuDeadLoop.c.766ed9a6
                0x00000000000099ce                Cpu.c.c8e3c0eb
                0x0000000000009c4d                LinkedList.c.416c08fc
                0x000000000000a115                SafeString.c.0d975522
                0x000000000000af82                String.c.d15cb365
                0x000000000000b91e                FilePaths.c.b8baf793
                0x000000000000bbd3                GccInline.c.682f8fbe
                0x000000000000c641                DivS64x64Remainder.c.9d85fbc3
                0x000000000000c8dd                Non_existing.c.8436a6af
                0x000000000000cb6b                Unaligned.c.d7c3c134
                0x000000000000cefa                X86WriteIdtr.c.d33af95d
                0x000000000000d1a7                X86WriteGdtr.c.36e65b09
                0x000000000000d454                X86Thunk.c.87d6167e
                0x000000000000ddab                X86ReadIdtr.c.d9fcefce
                0x000000000000e053                X86ReadGdtr.c.284ecdd2
                0x000000000000e2fb                X86Msr.c.3174e7ac
                0x000000000000e95d                X86GetInterruptState.c.295e8e31
                0x000000000000ed70                X86FxSave.c.ee4016cd
                0x000000000000f01c                X86FxRestore.c.8b904e8b
                0x000000000000f2cd                X86EnablePaging64.c.0059e050
                0x000000000000f55a                X86EnablePaging32.c.786e5386
                0x000000000000f801                X86DisablePaging64.c.5d3f3093
                0x000000000000fa8e                X86DisablePaging32.c.ef16a64d
                0x000000000000fd35                X86RdRand.c.c5793426
                0x000000000000ffe7                X86PatchInstruction.c.2844265d
                0x0000000000010281                DebugLib.c.e294f638
                0x0000000000011d20                UefiBootServicesTableLib.c.d1dc52dd
                0x000000000001369b                MemoryAllocationLib.c.de2c7c92
                0x000000000001550a                UefiRuntimeServicesTableLib.c.ef89e8dd
                0x0000000000016e56                DevicePathUtilities.c.9b7ec63a
                0x0000000000018cb2                DevicePathToText.c.3dd9d808
                0x000000000001ca6d                DevicePathFromText.c.49abc9c7
                0x0000000000021124                UefiDevicePathLib.c.78cc9fcd
                0x0000000000022cbc                UefiLibPrint.c.e721fd3f
                0x0000000000025448                UefiNotTiano.c.d1bc6a1e
                0x00000000000270b9                UefiDriverModel.c.c96e5a0e
                0x00000000000292e6                Console.c.fba4d6c9
                0x000000000002aff5                UefiLib.c.3740b002
                0x000000000002d321                ApplicationEntryPoint.c.c5f2fec5
                0x000000000002ece4                loader.c.505dbc20
                0x0000000000030c62                AutoGen.c.0380ad6c
                0x000000000003293a                MemoryMap.c.6a165fa5
 .debug_info    0x0000000000034838     0x14c9 /tmp/ccviENyE.ltrans0.ltrans.o

.debug_abbrev   0x0000000000000000      0x22f
 .debug_abbrev  0x0000000000000000      0x22f /tmp/ccviENyE.ltrans0.ltrans.o

.debug_loc      0x0000000000000000     0x1c7c
 .debug_loc     0x0000000000000000     0x1c7c /tmp/ccviENyE.ltrans0.ltrans.o

.debug_aranges  0x0000000000000000       0x98
 .debug_aranges
                0x0000000000000000       0x98 /tmp/ccviENyE.ltrans0.ltrans.o

.debug_ranges   0x0000000000000000      0x258
 .debug_ranges  0x0000000000000000      0x258 /tmp/ccviENyE.ltrans0.ltrans.o

.debug_line     0x0000000000000000     0x115d
 .debug_line    0x0000000000000000     0x115d /tmp/ccviENyE.ltrans0.ltrans.o

.debug_str      0x0000000000000000      0x183
 .debug_str     0x0000000000000000      0x183 /tmp/ccviENyE.ltrans0.ltrans.o

.debug_frame    0x0000000000000000      0x260
 .debug_frame   0x0000000000000000      0x260 /tmp/ccviENyE.ltrans0.ltrans.o
