Archive member included to satisfy reference by file (symbol)

/home/naoki/XV6/edk2/xv6_bootloader/build/RELEASE_GCC5/X64/MdePkg/Library/BaseDebugPrintErrorLevelLib/BaseDebugPrintErrorLevelLib/OUTPUT/BaseDebugPrintErrorLevelLib.lib(BaseDebugPrintErrorLevelLib.obj)
                              (--whole-archive)
/home/naoki/XV6/edk2/xv6_bootloader/build/RELEASE_GCC5/X64/MdePkg/Library/BasePrintLib/BasePrintLib/OUTPUT/BasePrintLib.lib(PrintLibInternal.obj)
                              (--whole-archive)
/home/naoki/XV6/edk2/xv6_bootloader/build/RELEASE_GCC5/X64/MdePkg/Library/BasePrintLib/BasePrintLib/OUTPUT/BasePrintLib.lib(PrintLib.obj)
                              (--whole-archive)
/home/naoki/XV6/edk2/xv6_bootloader/build/RELEASE_GCC5/X64/MdePkg/Library/BaseMemoryLib/BaseMemoryLib/OUTPUT/BaseMemoryLib.lib(SetMem.obj)
                              (--whole-archive)
/home/naoki/XV6/edk2/xv6_bootloader/build/RELEASE_GCC5/X64/MdePkg/Library/BaseMemoryLib/BaseMemoryLib/OUTPUT/BaseMemoryLib.lib(ScanMem64Wrapper.obj)
                              (--whole-archive)
/home/naoki/XV6/edk2/xv6_bootloader/build/RELEASE_GCC5/X64/MdePkg/Library/BaseMemoryLib/BaseMemoryLib/OUTPUT/BaseMemoryLib.lib(ScanMem32Wrapper.obj)
                              (--whole-archive)
/home/naoki/XV6/edk2/xv6_bootloader/build/RELEASE_GCC5/X64/MdePkg/Library/BaseMemoryLib/BaseMemoryLib/OUTPUT/BaseMemoryLib.lib(ScanMem16Wrapper.obj)
                              (--whole-archive)
/home/naoki/XV6/edk2/xv6_bootloader/build/RELEASE_GCC5/X64/MdePkg/Library/BaseMemoryLib/BaseMemoryLib/OUTPUT/BaseMemoryLib.lib(ScanMem8Wrapper.obj)
                              (--whole-archive)
/home/naoki/XV6/edk2/xv6_bootloader/build/RELEASE_GCC5/X64/MdePkg/Library/BaseMemoryLib/BaseMemoryLib/OUTPUT/BaseMemoryLib.lib(ZeroMemWrapper.obj)
                              (--whole-archive)
/home/naoki/XV6/edk2/xv6_bootloader/build/RELEASE_GCC5/X64/MdePkg/Library/BaseMemoryLib/BaseMemoryLib/OUTPUT/BaseMemoryLib.lib(CompareMemWrapper.obj)
                              (--whole-archive)
/home/naoki/XV6/edk2/xv6_bootloader/build/RELEASE_GCC5/X64/MdePkg/Library/BaseMemoryLib/BaseMemoryLib/OUTPUT/BaseMemoryLib.lib(SetMem64Wrapper.obj)
                              (--whole-archive)
/home/naoki/XV6/edk2/xv6_bootloader/build/RELEASE_GCC5/X64/MdePkg/Library/BaseMemoryLib/BaseMemoryLib/OUTPUT/BaseMemoryLib.lib(SetMem32Wrapper.obj)
                              (--whole-archive)
/home/naoki/XV6/edk2/xv6_bootloader/build/RELEASE_GCC5/X64/MdePkg/Library/BaseMemoryLib/BaseMemoryLib/OUTPUT/BaseMemoryLib.lib(SetMem16Wrapper.obj)
                              (--whole-archive)
/home/naoki/XV6/edk2/xv6_bootloader/build/RELEASE_GCC5/X64/MdePkg/Library/BaseMemoryLib/BaseMemoryLib/OUTPUT/BaseMemoryLib.lib(SetMemWrapper.obj)
                              (--whole-archive)
/home/naoki/XV6/edk2/xv6_bootloader/build/RELEASE_GCC5/X64/MdePkg/Library/BaseMemoryLib/BaseMemoryLib/OUTPUT/BaseMemoryLib.lib(CopyMemWrapper.obj)
                              (--whole-archive)
/home/naoki/XV6/edk2/xv6_bootloader/build/RELEASE_GCC5/X64/MdePkg/Library/BaseMemoryLib/BaseMemoryLib/OUTPUT/BaseMemoryLib.lib(IsZeroBufferWrapper.obj)
                              (--whole-archive)
/home/naoki/XV6/edk2/xv6_bootloader/build/RELEASE_GCC5/X64/MdePkg/Library/BaseMemoryLib/BaseMemoryLib/OUTPUT/BaseMemoryLib.lib(MemLibGeneric.obj)
                              (--whole-archive)
/home/naoki/XV6/edk2/xv6_bootloader/build/RELEASE_GCC5/X64/MdePkg/Library/BaseMemoryLib/BaseMemoryLib/OUTPUT/BaseMemoryLib.lib(MemLibGuid.obj)
                              (--whole-archive)
/home/naoki/XV6/edk2/xv6_bootloader/build/RELEASE_GCC5/X64/MdePkg/Library/BaseMemoryLib/BaseMemoryLib/OUTPUT/BaseMemoryLib.lib(CopyMem.obj)
                              (--whole-archive)
/home/naoki/XV6/edk2/xv6_bootloader/build/RELEASE_GCC5/X64/MdePkg/Library/BasePcdLibNull/BasePcdLibNull/OUTPUT/BasePcdLibNull.lib(PcdLib.obj)
                              (--whole-archive)
/home/naoki/XV6/edk2/xv6_bootloader/build/RELEASE_GCC5/X64/MdePkg/Library/BaseLib/BaseLib/OUTPUT/BaseLib.lib(CheckSum.obj)
                              (--whole-archive)
/home/naoki/XV6/edk2/xv6_bootloader/build/RELEASE_GCC5/X64/MdePkg/Library/BaseLib/BaseLib/OUTPUT/BaseLib.lib(SwitchStack.obj)
                              (--whole-archive)
/home/naoki/XV6/edk2/xv6_bootloader/build/RELEASE_GCC5/X64/MdePkg/Library/BaseLib/BaseLib/OUTPUT/BaseLib.lib(SwapBytes64.obj)
                              (--whole-archive)
/home/naoki/XV6/edk2/xv6_bootloader/build/RELEASE_GCC5/X64/MdePkg/Library/BaseLib/BaseLib/OUTPUT/BaseLib.lib(SwapBytes32.obj)
                              (--whole-archive)
/home/naoki/XV6/edk2/xv6_bootloader/build/RELEASE_GCC5/X64/MdePkg/Library/BaseLib/BaseLib/OUTPUT/BaseLib.lib(SwapBytes16.obj)
                              (--whole-archive)
/home/naoki/XV6/edk2/xv6_bootloader/build/RELEASE_GCC5/X64/MdePkg/Library/BaseLib/BaseLib/OUTPUT/BaseLib.lib(LongJump.obj)
                              (--whole-archive)
/home/naoki/XV6/edk2/xv6_bootloader/build/RELEASE_GCC5/X64/MdePkg/Library/BaseLib/BaseLib/OUTPUT/BaseLib.lib(SetJump.obj)
                              (--whole-archive)
/home/naoki/XV6/edk2/xv6_bootloader/build/RELEASE_GCC5/X64/MdePkg/Library/BaseLib/BaseLib/OUTPUT/BaseLib.lib(RShiftU64.obj)
                              (--whole-archive)
/home/naoki/XV6/edk2/xv6_bootloader/build/RELEASE_GCC5/X64/MdePkg/Library/BaseLib/BaseLib/OUTPUT/BaseLib.lib(RRotU64.obj)
                              (--whole-archive)
/home/naoki/XV6/edk2/xv6_bootloader/build/RELEASE_GCC5/X64/MdePkg/Library/BaseLib/BaseLib/OUTPUT/BaseLib.lib(RRotU32.obj)
                              (--whole-archive)
/home/naoki/XV6/edk2/xv6_bootloader/build/RELEASE_GCC5/X64/MdePkg/Library/BaseLib/BaseLib/OUTPUT/BaseLib.lib(MultU64x64.obj)
                              (--whole-archive)
/home/naoki/XV6/edk2/xv6_bootloader/build/RELEASE_GCC5/X64/MdePkg/Library/BaseLib/BaseLib/OUTPUT/BaseLib.lib(MultU64x32.obj)
                              (--whole-archive)
/home/naoki/XV6/edk2/xv6_bootloader/build/RELEASE_GCC5/X64/MdePkg/Library/BaseLib/BaseLib/OUTPUT/BaseLib.lib(MultS64x64.obj)
                              (--whole-archive)
/home/naoki/XV6/edk2/xv6_bootloader/build/RELEASE_GCC5/X64/MdePkg/Library/BaseLib/BaseLib/OUTPUT/BaseLib.lib(ModU64x32.obj)
                              (--whole-archive)
/home/naoki/XV6/edk2/xv6_bootloader/build/RELEASE_GCC5/X64/MdePkg/Library/BaseLib/BaseLib/OUTPUT/BaseLib.lib(LShiftU64.obj)
                              (--whole-archive)
/home/naoki/XV6/edk2/xv6_bootloader/build/RELEASE_GCC5/X64/MdePkg/Library/BaseLib/BaseLib/OUTPUT/BaseLib.lib(LRotU64.obj)
                              (--whole-archive)
/home/naoki/XV6/edk2/xv6_bootloader/build/RELEASE_GCC5/X64/MdePkg/Library/BaseLib/BaseLib/OUTPUT/BaseLib.lib(LRotU32.obj)
                              (--whole-archive)
/home/naoki/XV6/edk2/xv6_bootloader/build/RELEASE_GCC5/X64/MdePkg/Library/BaseLib/BaseLib/OUTPUT/BaseLib.lib(LowBitSet64.obj)
                              (--whole-archive)
/home/naoki/XV6/edk2/xv6_bootloader/build/RELEASE_GCC5/X64/MdePkg/Library/BaseLib/BaseLib/OUTPUT/BaseLib.lib(LowBitSet32.obj)
                              (--whole-archive)
/home/naoki/XV6/edk2/xv6_bootloader/build/RELEASE_GCC5/X64/MdePkg/Library/BaseLib/BaseLib/OUTPUT/BaseLib.lib(HighBitSet64.obj)
                              (--whole-archive)
/home/naoki/XV6/edk2/xv6_bootloader/build/RELEASE_GCC5/X64/MdePkg/Library/BaseLib/BaseLib/OUTPUT/BaseLib.lib(HighBitSet32.obj)
                              (--whole-archive)
/home/naoki/XV6/edk2/xv6_bootloader/build/RELEASE_GCC5/X64/MdePkg/Library/BaseLib/BaseLib/OUTPUT/BaseLib.lib(GetPowerOfTwo64.obj)
                              (--whole-archive)
/home/naoki/XV6/edk2/xv6_bootloader/build/RELEASE_GCC5/X64/MdePkg/Library/BaseLib/BaseLib/OUTPUT/BaseLib.lib(GetPowerOfTwo32.obj)
                              (--whole-archive)
/home/naoki/XV6/edk2/xv6_bootloader/build/RELEASE_GCC5/X64/MdePkg/Library/BaseLib/BaseLib/OUTPUT/BaseLib.lib(DivU64x64Remainder.obj)
                              (--whole-archive)
/home/naoki/XV6/edk2/xv6_bootloader/build/RELEASE_GCC5/X64/MdePkg/Library/BaseLib/BaseLib/OUTPUT/BaseLib.lib(DivU64x32Remainder.obj)
                              (--whole-archive)
/home/naoki/XV6/edk2/xv6_bootloader/build/RELEASE_GCC5/X64/MdePkg/Library/BaseLib/BaseLib/OUTPUT/BaseLib.lib(DivU64x32.obj)
                              (--whole-archive)
/home/naoki/XV6/edk2/xv6_bootloader/build/RELEASE_GCC5/X64/MdePkg/Library/BaseLib/BaseLib/OUTPUT/BaseLib.lib(DivS64x64Remainder.obj)
                              (--whole-archive)
/home/naoki/XV6/edk2/xv6_bootloader/build/RELEASE_GCC5/X64/MdePkg/Library/BaseLib/BaseLib/OUTPUT/BaseLib.lib(ARShiftU64.obj)
                              (--whole-archive)
/home/naoki/XV6/edk2/xv6_bootloader/build/RELEASE_GCC5/X64/MdePkg/Library/BaseLib/BaseLib/OUTPUT/BaseLib.lib(BitField.obj)
                              (--whole-archive)
/home/naoki/XV6/edk2/xv6_bootloader/build/RELEASE_GCC5/X64/MdePkg/Library/BaseLib/BaseLib/OUTPUT/BaseLib.lib(CpuDeadLoop.obj)
                              (--whole-archive)
/home/naoki/XV6/edk2/xv6_bootloader/build/RELEASE_GCC5/X64/MdePkg/Library/BaseLib/BaseLib/OUTPUT/BaseLib.lib(Cpu.obj)
                              (--whole-archive)
/home/naoki/XV6/edk2/xv6_bootloader/build/RELEASE_GCC5/X64/MdePkg/Library/BaseLib/BaseLib/OUTPUT/BaseLib.lib(LinkedList.obj)
                              (--whole-archive)
/home/naoki/XV6/edk2/xv6_bootloader/build/RELEASE_GCC5/X64/MdePkg/Library/BaseLib/BaseLib/OUTPUT/BaseLib.lib(SafeString.obj)
                              (--whole-archive)
/home/naoki/XV6/edk2/xv6_bootloader/build/RELEASE_GCC5/X64/MdePkg/Library/BaseLib/BaseLib/OUTPUT/BaseLib.lib(String.obj)
                              (--whole-archive)
/home/naoki/XV6/edk2/xv6_bootloader/build/RELEASE_GCC5/X64/MdePkg/Library/BaseLib/BaseLib/OUTPUT/BaseLib.lib(FilePaths.obj)
                              (--whole-archive)
/home/naoki/XV6/edk2/xv6_bootloader/build/RELEASE_GCC5/X64/MdePkg/Library/BaseLib/BaseLib/OUTPUT/BaseLib.lib(Thunk16.obj)
                              (--whole-archive)
/home/naoki/XV6/edk2/xv6_bootloader/build/RELEASE_GCC5/X64/MdePkg/Library/BaseLib/BaseLib/OUTPUT/BaseLib.lib(WriteTr.obj)
                              (--whole-archive)
/home/naoki/XV6/edk2/xv6_bootloader/build/RELEASE_GCC5/X64/MdePkg/Library/BaseLib/BaseLib/OUTPUT/BaseLib.lib(Non-existing.obj)
                              (--whole-archive)
/home/naoki/XV6/edk2/xv6_bootloader/build/RELEASE_GCC5/X64/MdePkg/Library/BaseLib/BaseLib/OUTPUT/BaseLib.lib(Math64.obj)
                              (--whole-archive)
/home/naoki/XV6/edk2/xv6_bootloader/build/RELEASE_GCC5/X64/MdePkg/Library/BaseLib/BaseLib/OUTPUT/BaseLib.lib(Unaligned.obj)
                              (--whole-archive)
/home/naoki/XV6/edk2/xv6_bootloader/build/RELEASE_GCC5/X64/MdePkg/Library/BaseLib/BaseLib/OUTPUT/BaseLib.lib(X86WriteIdtr.obj)
                              (--whole-archive)
/home/naoki/XV6/edk2/xv6_bootloader/build/RELEASE_GCC5/X64/MdePkg/Library/BaseLib/BaseLib/OUTPUT/BaseLib.lib(X86WriteGdtr.obj)
                              (--whole-archive)
/home/naoki/XV6/edk2/xv6_bootloader/build/RELEASE_GCC5/X64/MdePkg/Library/BaseLib/BaseLib/OUTPUT/BaseLib.lib(X86Thunk.obj)
                              (--whole-archive)
/home/naoki/XV6/edk2/xv6_bootloader/build/RELEASE_GCC5/X64/MdePkg/Library/BaseLib/BaseLib/OUTPUT/BaseLib.lib(X86ReadIdtr.obj)
                              (--whole-archive)
/home/naoki/XV6/edk2/xv6_bootloader/build/RELEASE_GCC5/X64/MdePkg/Library/BaseLib/BaseLib/OUTPUT/BaseLib.lib(X86ReadGdtr.obj)
                              (--whole-archive)
/home/naoki/XV6/edk2/xv6_bootloader/build/RELEASE_GCC5/X64/MdePkg/Library/BaseLib/BaseLib/OUTPUT/BaseLib.lib(X86Msr.obj)
                              (--whole-archive)
/home/naoki/XV6/edk2/xv6_bootloader/build/RELEASE_GCC5/X64/MdePkg/Library/BaseLib/BaseLib/OUTPUT/BaseLib.lib(X86GetInterruptState.obj)
                              (--whole-archive)
/home/naoki/XV6/edk2/xv6_bootloader/build/RELEASE_GCC5/X64/MdePkg/Library/BaseLib/BaseLib/OUTPUT/BaseLib.lib(X86FxSave.obj)
                              (--whole-archive)
/home/naoki/XV6/edk2/xv6_bootloader/build/RELEASE_GCC5/X64/MdePkg/Library/BaseLib/BaseLib/OUTPUT/BaseLib.lib(X86FxRestore.obj)
                              (--whole-archive)
/home/naoki/XV6/edk2/xv6_bootloader/build/RELEASE_GCC5/X64/MdePkg/Library/BaseLib/BaseLib/OUTPUT/BaseLib.lib(X86EnablePaging64.obj)
                              (--whole-archive)
/home/naoki/XV6/edk2/xv6_bootloader/build/RELEASE_GCC5/X64/MdePkg/Library/BaseLib/BaseLib/OUTPUT/BaseLib.lib(X86EnablePaging32.obj)
                              (--whole-archive)
/home/naoki/XV6/edk2/xv6_bootloader/build/RELEASE_GCC5/X64/MdePkg/Library/BaseLib/BaseLib/OUTPUT/BaseLib.lib(X86DisablePaging64.obj)
                              (--whole-archive)
/home/naoki/XV6/edk2/xv6_bootloader/build/RELEASE_GCC5/X64/MdePkg/Library/BaseLib/BaseLib/OUTPUT/BaseLib.lib(X86DisablePaging32.obj)
                              (--whole-archive)
/home/naoki/XV6/edk2/xv6_bootloader/build/RELEASE_GCC5/X64/MdePkg/Library/BaseLib/BaseLib/OUTPUT/BaseLib.lib(X86RdRand.obj)
                              (--whole-archive)
/home/naoki/XV6/edk2/xv6_bootloader/build/RELEASE_GCC5/X64/MdePkg/Library/BaseLib/BaseLib/OUTPUT/BaseLib.lib(X86PatchInstruction.obj)
                              (--whole-archive)
/home/naoki/XV6/edk2/xv6_bootloader/build/RELEASE_GCC5/X64/MdePkg/Library/BaseLib/BaseLib/OUTPUT/BaseLib.lib(GccInline.obj)
                              (--whole-archive)
/home/naoki/XV6/edk2/xv6_bootloader/build/RELEASE_GCC5/X64/MdePkg/Library/BaseLib/BaseLib/OUTPUT/BaseLib.lib(SwitchStack.obj)
                              (--whole-archive)
/home/naoki/XV6/edk2/xv6_bootloader/build/RELEASE_GCC5/X64/MdePkg/Library/BaseLib/BaseLib/OUTPUT/BaseLib.lib(SetJump.obj)
                              (--whole-archive)
/home/naoki/XV6/edk2/xv6_bootloader/build/RELEASE_GCC5/X64/MdePkg/Library/BaseLib/BaseLib/OUTPUT/BaseLib.lib(LongJump.obj)
                              (--whole-archive)
/home/naoki/XV6/edk2/xv6_bootloader/build/RELEASE_GCC5/X64/MdePkg/Library/BaseLib/BaseLib/OUTPUT/BaseLib.lib(EnableDisableInterrupts.obj)
                              (--whole-archive)
/home/naoki/XV6/edk2/xv6_bootloader/build/RELEASE_GCC5/X64/MdePkg/Library/BaseLib/BaseLib/OUTPUT/BaseLib.lib(DisablePaging64.obj)
                              (--whole-archive)
/home/naoki/XV6/edk2/xv6_bootloader/build/RELEASE_GCC5/X64/MdePkg/Library/BaseLib/BaseLib/OUTPUT/BaseLib.lib(CpuId.obj)
                              (--whole-archive)
/home/naoki/XV6/edk2/xv6_bootloader/build/RELEASE_GCC5/X64/MdePkg/Library/BaseLib/BaseLib/OUTPUT/BaseLib.lib(CpuIdEx.obj)
                              (--whole-archive)
/home/naoki/XV6/edk2/xv6_bootloader/build/RELEASE_GCC5/X64/MdePkg/Library/BaseLib/BaseLib/OUTPUT/BaseLib.lib(EnableCache.obj)
                              (--whole-archive)
/home/naoki/XV6/edk2/xv6_bootloader/build/RELEASE_GCC5/X64/MdePkg/Library/BaseLib/BaseLib/OUTPUT/BaseLib.lib(DisableCache.obj)
                              (--whole-archive)
/home/naoki/XV6/edk2/xv6_bootloader/build/RELEASE_GCC5/X64/MdePkg/Library/BaseLib/BaseLib/OUTPUT/BaseLib.lib(RdRand.obj)
                              (--whole-archive)
/home/naoki/XV6/edk2/xv6_bootloader/build/RELEASE_GCC5/X64/MdePkg/Library/BaseLib/BaseLib/OUTPUT/BaseLib.lib(ChkStkGcc.obj)
                              (--whole-archive)
/home/naoki/XV6/edk2/xv6_bootloader/build/RELEASE_GCC5/X64/MdePkg/Library/UefiDebugLibConOut/UefiDebugLibConOut/OUTPUT/UefiDebugLibConOut.lib(DebugLib.obj)
                              (--whole-archive)
/home/naoki/XV6/edk2/xv6_bootloader/build/RELEASE_GCC5/X64/MdePkg/Library/UefiBootServicesTableLib/UefiBootServicesTableLib/OUTPUT/UefiBootServicesTableLib.lib(UefiBootServicesTableLib.obj)
                              (--whole-archive)
/home/naoki/XV6/edk2/xv6_bootloader/build/RELEASE_GCC5/X64/MdePkg/Library/UefiMemoryAllocationLib/UefiMemoryAllocationLib/OUTPUT/UefiMemoryAllocationLib.lib(MemoryAllocationLib.obj)
                              (--whole-archive)
/home/naoki/XV6/edk2/xv6_bootloader/build/RELEASE_GCC5/X64/MdePkg/Library/UefiRuntimeServicesTableLib/UefiRuntimeServicesTableLib/OUTPUT/UefiRuntimeServicesTableLib.lib(UefiRuntimeServicesTableLib.obj)
                              (--whole-archive)
/home/naoki/XV6/edk2/xv6_bootloader/build/RELEASE_GCC5/X64/MdePkg/Library/UefiDevicePathLib/UefiDevicePathLib/OUTPUT/UefiDevicePathLib.lib(DevicePathUtilities.obj)
                              (--whole-archive)
/home/naoki/XV6/edk2/xv6_bootloader/build/RELEASE_GCC5/X64/MdePkg/Library/UefiDevicePathLib/UefiDevicePathLib/OUTPUT/UefiDevicePathLib.lib(DevicePathToText.obj)
                              (--whole-archive)
/home/naoki/XV6/edk2/xv6_bootloader/build/RELEASE_GCC5/X64/MdePkg/Library/UefiDevicePathLib/UefiDevicePathLib/OUTPUT/UefiDevicePathLib.lib(DevicePathFromText.obj)
                              (--whole-archive)
/home/naoki/XV6/edk2/xv6_bootloader/build/RELEASE_GCC5/X64/MdePkg/Library/UefiDevicePathLib/UefiDevicePathLib/OUTPUT/UefiDevicePathLib.lib(UefiDevicePathLib.obj)
                              (--whole-archive)
/home/naoki/XV6/edk2/xv6_bootloader/build/RELEASE_GCC5/X64/MdePkg/Library/UefiLib/UefiLib/OUTPUT/UefiLib.lib(UefiLibPrint.obj)
                              (--whole-archive)
/home/naoki/XV6/edk2/xv6_bootloader/build/RELEASE_GCC5/X64/MdePkg/Library/UefiLib/UefiLib/OUTPUT/UefiLib.lib(UefiNotTiano.obj)
                              (--whole-archive)
/home/naoki/XV6/edk2/xv6_bootloader/build/RELEASE_GCC5/X64/MdePkg/Library/UefiLib/UefiLib/OUTPUT/UefiLib.lib(UefiDriverModel.obj)
                              (--whole-archive)
/home/naoki/XV6/edk2/xv6_bootloader/build/RELEASE_GCC5/X64/MdePkg/Library/UefiLib/UefiLib/OUTPUT/UefiLib.lib(Console.obj)
                              (--whole-archive)
/home/naoki/XV6/edk2/xv6_bootloader/build/RELEASE_GCC5/X64/MdePkg/Library/UefiLib/UefiLib/OUTPUT/UefiLib.lib(UefiLib.obj)
                              (--whole-archive)
/home/naoki/XV6/edk2/xv6_bootloader/build/RELEASE_GCC5/X64/MdePkg/Library/UefiApplicationEntryPoint/UefiApplicationEntryPoint/OUTPUT/UefiApplicationEntryPoint.lib(ApplicationEntryPoint.obj)
                              (--whole-archive)
/home/naoki/XV6/edk2/xv6_bootloader/build/RELEASE_GCC5/X64/xv6_bootloader/loader/OUTPUT/loader.lib(loader.obj)
                              (--whole-archive)
/home/naoki/XV6/edk2/xv6_bootloader/build/RELEASE_GCC5/X64/xv6_bootloader/loader/OUTPUT/loader.lib(AutoGen.obj)
                              (--whole-archive)
/home/naoki/XV6/edk2/xv6_bootloader/build/RELEASE_GCC5/X64/xv6_bootloader/loader/OUTPUT/loader.lib(relocate.obj)
                              (--whole-archive)
/home/naoki/XV6/edk2/xv6_bootloader/build/RELEASE_GCC5/X64/xv6_bootloader/loader/OUTPUT/loader.lib(memory_map.obj)
                              (--whole-archive)
/home/naoki/XV6/edk2/xv6_bootloader/build/RELEASE_GCC5/X64/xv6_bootloader/loader/OUTPUT/loader.lib(graphic.obj)
                              (--whole-archive)
/home/naoki/XV6/edk2/xv6_bootloader/build/RELEASE_GCC5/X64/xv6_bootloader/loader/OUTPUT/loader.lib(file_loader.obj)
                              (--whole-archive)
/home/naoki/XV6/edk2/xv6_bootloader/build/RELEASE_GCC5/X64/xv6_bootloader/loader/OUTPUT/loader.lib(pci.obj)
                              (--whole-archive)

破棄された入力セクション

 .comment       0x0000000000000000      0x6c0 /tmp/ccb9kUiqdebugobj
 .note.GNU-stack
                0x0000000000000000        0x0 /tmp/ccb9kUiqdebugobj
 .text          0x0000000000000000        0x0 /tmp/cchmqi7B.ltrans0.ltrans.o
 .data          0x0000000000000000        0x0 /tmp/cchmqi7B.ltrans0.ltrans.o
 .bss           0x0000000000000000        0x0 /tmp/cchmqi7B.ltrans0.ltrans.o
 .rodata.DebugPrint.constprop.7.str1.1
                0x0000000000000000       0x21 /tmp/cchmqi7B.ltrans0.ltrans.o
 .text.DebugPrint.constprop.7
                0x0000000000000000       0x65 /tmp/cchmqi7B.ltrans0.ltrans.o
 .rodata.InternalAssertJumpBuffer.str1.1
                0x0000000000000000       0x74 /tmp/cchmqi7B.ltrans0.ltrans.o
 .text.InternalAssertJumpBuffer
                0x0000000000000000       0x44 /tmp/cchmqi7B.ltrans0.ltrans.o
 .comment       0x0000000000000000       0x12 /tmp/cchmqi7B.ltrans0.ltrans.o
 .note.GNU-stack
                0x0000000000000000        0x0 /tmp/cchmqi7B.ltrans0.ltrans.o
 .text          0x0000000000000000      0x204 /home/naoki/XV6/edk2/xv6_bootloader/build/RELEASE_GCC5/X64/MdePkg/Library/BaseLib/BaseLib/OUTPUT/BaseLib.lib(Thunk16.obj)
 .data          0x0000000000000000        0xa /home/naoki/XV6/edk2/xv6_bootloader/build/RELEASE_GCC5/X64/MdePkg/Library/BaseLib/BaseLib/OUTPUT/BaseLib.lib(Thunk16.obj)
 .text          0x0000000000000000        0x6 /home/naoki/XV6/edk2/xv6_bootloader/build/RELEASE_GCC5/X64/MdePkg/Library/BaseLib/BaseLib/OUTPUT/BaseLib.lib(WriteTr.obj)
 .text          0x0000000000000000        0xf /home/naoki/XV6/edk2/xv6_bootloader/build/RELEASE_GCC5/X64/MdePkg/Library/BaseLib/BaseLib/OUTPUT/BaseLib.lib(SwitchStack.obj)
 .text          0x0000000000000000       0x8f /home/naoki/XV6/edk2/xv6_bootloader/build/RELEASE_GCC5/X64/MdePkg/Library/BaseLib/BaseLib/OUTPUT/BaseLib.lib(SetJump.obj)
 .text          0x0000000000000000       0x7c /home/naoki/XV6/edk2/xv6_bootloader/build/RELEASE_GCC5/X64/MdePkg/Library/BaseLib/BaseLib/OUTPUT/BaseLib.lib(LongJump.obj)
 .text          0x0000000000000000        0x3 /home/naoki/XV6/edk2/xv6_bootloader/build/RELEASE_GCC5/X64/MdePkg/Library/BaseLib/BaseLib/OUTPUT/BaseLib.lib(EnableDisableInterrupts.obj)
 .text          0x0000000000000000       0x61 /home/naoki/XV6/edk2/xv6_bootloader/build/RELEASE_GCC5/X64/MdePkg/Library/BaseLib/BaseLib/OUTPUT/BaseLib.lib(DisablePaging64.obj)
 .text          0x0000000000000000       0x27 /home/naoki/XV6/edk2/xv6_bootloader/build/RELEASE_GCC5/X64/MdePkg/Library/BaseLib/BaseLib/OUTPUT/BaseLib.lib(CpuId.obj)
 .text          0x0000000000000000       0x2f /home/naoki/XV6/edk2/xv6_bootloader/build/RELEASE_GCC5/X64/MdePkg/Library/BaseLib/BaseLib/OUTPUT/BaseLib.lib(CpuIdEx.obj)
 .text          0x0000000000000000       0x13 /home/naoki/XV6/edk2/xv6_bootloader/build/RELEASE_GCC5/X64/MdePkg/Library/BaseLib/BaseLib/OUTPUT/BaseLib.lib(EnableCache.obj)
 .text          0x0000000000000000       0x13 /home/naoki/XV6/edk2/xv6_bootloader/build/RELEASE_GCC5/X64/MdePkg/Library/BaseLib/BaseLib/OUTPUT/BaseLib.lib(DisableCache.obj)
 .text          0x0000000000000000       0x36 /home/naoki/XV6/edk2/xv6_bootloader/build/RELEASE_GCC5/X64/MdePkg/Library/BaseLib/BaseLib/OUTPUT/BaseLib.lib(RdRand.obj)

メモリ設定

名前           原点             長さ             属性
*default*        0x0000000000000000 0xffffffffffffffff

リンカスクリプトおよびメモリマップ

LOAD /tmp/ccb9kUiqdebugobj
LOAD /tmp/cchmqi7B.ltrans0.ltrans.o
START GROUP
LOAD /home/naoki/XV6/edk2/xv6_bootloader/build/RELEASE_GCC5/X64/MdePkg/Library/BaseDebugPrintErrorLevelLib/BaseDebugPrintErrorLevelLib/OUTPUT/BaseDebugPrintErrorLevelLib.lib
LOAD /home/naoki/XV6/edk2/xv6_bootloader/build/RELEASE_GCC5/X64/MdePkg/Library/BasePrintLib/BasePrintLib/OUTPUT/BasePrintLib.lib
LOAD /home/naoki/XV6/edk2/xv6_bootloader/build/RELEASE_GCC5/X64/MdePkg/Library/BaseMemoryLib/BaseMemoryLib/OUTPUT/BaseMemoryLib.lib
LOAD /home/naoki/XV6/edk2/xv6_bootloader/build/RELEASE_GCC5/X64/MdePkg/Library/BasePcdLibNull/BasePcdLibNull/OUTPUT/BasePcdLibNull.lib
LOAD /home/naoki/XV6/edk2/xv6_bootloader/build/RELEASE_GCC5/X64/MdePkg/Library/BaseLib/BaseLib/OUTPUT/BaseLib.lib
LOAD /home/naoki/XV6/edk2/xv6_bootloader/build/RELEASE_GCC5/X64/MdePkg/Library/UefiDebugLibConOut/UefiDebugLibConOut/OUTPUT/UefiDebugLibConOut.lib
LOAD /home/naoki/XV6/edk2/xv6_bootloader/build/RELEASE_GCC5/X64/MdePkg/Library/UefiBootServicesTableLib/UefiBootServicesTableLib/OUTPUT/UefiBootServicesTableLib.lib
LOAD /home/naoki/XV6/edk2/xv6_bootloader/build/RELEASE_GCC5/X64/MdePkg/Library/UefiMemoryAllocationLib/UefiMemoryAllocationLib/OUTPUT/UefiMemoryAllocationLib.lib
LOAD /home/naoki/XV6/edk2/xv6_bootloader/build/RELEASE_GCC5/X64/MdePkg/Library/UefiRuntimeServicesTableLib/UefiRuntimeServicesTableLib/OUTPUT/UefiRuntimeServicesTableLib.lib
LOAD /home/naoki/XV6/edk2/xv6_bootloader/build/RELEASE_GCC5/X64/MdePkg/Library/UefiDevicePathLib/UefiDevicePathLib/OUTPUT/UefiDevicePathLib.lib
LOAD /home/naoki/XV6/edk2/xv6_bootloader/build/RELEASE_GCC5/X64/MdePkg/Library/UefiLib/UefiLib/OUTPUT/UefiLib.lib
LOAD /home/naoki/XV6/edk2/xv6_bootloader/build/RELEASE_GCC5/X64/MdePkg/Library/UefiApplicationEntryPoint/UefiApplicationEntryPoint/OUTPUT/UefiApplicationEntryPoint.lib
LOAD /home/naoki/XV6/edk2/xv6_bootloader/build/RELEASE_GCC5/X64/xv6_bootloader/loader/OUTPUT/loader.lib
END GROUP
                0x0000000000000228                PECOFF_HEADER_SIZE = 0x228
                0x0000000000000228                . = PECOFF_HEADER_SIZE

.text           0x0000000000000240     0x4414
 *(.text .text.* .stub .gnu.linkonce.t.*)
 .text.InternalAllocatePool.constprop.5
                0x0000000000000240       0x37 /tmp/cchmqi7B.ltrans0.ltrans.o
 .text.DebugAssertEnabled
                0x0000000000000277        0x3 /tmp/cchmqi7B.ltrans0.ltrans.o
 .text.AsciiStrnLenS
                0x000000000000027a       0x26 /tmp/cchmqi7B.ltrans0.ltrans.o
 .text.BasePrintLibFillBuffer
                0x00000000000002a0       0x28 /tmp/cchmqi7B.ltrans0.ltrans.o
 .text.UnicodeSPrintAsciiFormat.constprop.16
                0x00000000000002c8       0x29 /tmp/cchmqi7B.ltrans0.ltrans.o
 .text.DebugAssert
                0x00000000000002f1       0x5e /tmp/cchmqi7B.ltrans0.ltrans.o
 .text.ReadUnaligned64
                0x000000000000034f       0x37 /tmp/cchmqi7B.ltrans0.ltrans.o
 .text.ReadUnaligned16
                0x0000000000000386        0x4 /tmp/cchmqi7B.ltrans0.ltrans.o
 .text.AsciiStrLen
                0x000000000000038a       0x7a /tmp/cchmqi7B.ltrans0.ltrans.o
 .text.StrnLenS
                0x0000000000000404       0x5d /tmp/cchmqi7B.ltrans0.ltrans.o
 .text.BasePrintLibSPrintMarker.constprop.17
                0x0000000000000461      0xd5f /tmp/cchmqi7B.ltrans0.ltrans.o
 .text.BasePrintLibSPrint.constprop.18
                0x00000000000011c0       0xb8 /tmp/cchmqi7B.ltrans0.ltrans.o
 .text.CopyMem.part.0
                0x0000000000001278      0x262 /tmp/cchmqi7B.ltrans0.ltrans.o
 .text.UnicodeVSPrintAsciiFormat
                0x00000000000014da       0xe8 /tmp/cchmqi7B.ltrans0.ltrans.o
 .text.AsciiSPrint.constprop.14
                0x00000000000015c2       0xc4 /tmp/cchmqi7B.ltrans0.ltrans.o
 .text.FreePool
                0x0000000000001686       0x40 /tmp/cchmqi7B.ltrans0.ltrans.o
 .text.Print    0x00000000000016c6      0x1d9 /tmp/cchmqi7B.ltrans0.ltrans.o
 .text.AsciiPrint.constprop.3
                0x000000000000189f      0x17c /tmp/cchmqi7B.ltrans0.ltrans.o
 .text.LoadFile
                0x0000000000001a1b      0x257 /tmp/cchmqi7B.ltrans0.ltrans.o
 .text.UefiMain
                0x0000000000001c72      0xe9f /tmp/cchmqi7B.ltrans0.ltrans.o
 .text._ModuleEntryPoint
                0x0000000000002b11       0xd6 /tmp/cchmqi7B.ltrans0.ltrans.o
                0x0000000000002b11                _ModuleEntryPoint
 *(.rodata .rodata.* .gnu.linkonce.r.*)
 .rodata.UnicodeSPrintAsciiFormat.constprop.16.str1.1
                0x0000000000002be7       0x18 /tmp/cchmqi7B.ltrans0.ltrans.o
 .rodata.DebugAssert.str1.1
                0x0000000000002bff        0x7 /tmp/cchmqi7B.ltrans0.ltrans.o
 .rodata.ReadUnaligned64.str1.1
                0x0000000000002c06       0x4f /tmp/cchmqi7B.ltrans0.ltrans.o
 .rodata.AsciiStrLen.str1.1
                0x0000000000002c55       0x84 /tmp/cchmqi7B.ltrans0.ltrans.o
 .rodata.StrnLenS.str1.1
                0x0000000000002cd9       0x5c /tmp/cchmqi7B.ltrans0.ltrans.o
 .rodata.BasePrintLibSPrintMarker.constprop.17.str1.1
                0x0000000000002d35      0x284 /tmp/cchmqi7B.ltrans0.ltrans.o
 .rodata.CopyMem.part.0.str1.1
                0x0000000000002fb9       0xc4 /tmp/cchmqi7B.ltrans0.ltrans.o
 .rodata.UnicodeVSPrintAsciiFormat.str1.1
                0x000000000000307d       0x64 /tmp/cchmqi7B.ltrans0.ltrans.o
 .rodata.AsciiSPrint.constprop.14.str1.1
                0x00000000000030e1       0x38 /tmp/cchmqi7B.ltrans0.ltrans.o
 .rodata.FreePool.str1.1
                0x0000000000003119       0x66 /tmp/cchmqi7B.ltrans0.ltrans.o
 .rodata.Print.str1.1
                0x000000000000317f       0x9d /tmp/cchmqi7B.ltrans0.ltrans.o
 .rodata.AsciiPrint.constprop.3.str1.1
                0x000000000000321c        0x3 /tmp/cchmqi7B.ltrans0.ltrans.o
 *fill*         0x000000000000321f        0x1 
 .rodata.LoadFile.str2.2
                0x0000000000003220      0x1bc /tmp/cchmqi7B.ltrans0.ltrans.o
 .rodata.LoadFile.str1.1
                0x00000000000033dc       0x3a /tmp/cchmqi7B.ltrans0.ltrans.o
 .rodata.UefiMain.str2.2
                0x0000000000003416      0xd7a /tmp/cchmqi7B.ltrans0.ltrans.o
                                        0xde0 (緩和前のサイズ)
 .rodata.UefiMain.str1.1
                0x0000000000004190       0xea /tmp/cchmqi7B.ltrans0.ltrans.o
 *fill*         0x000000000000427a        0x6 
 .rodata        0x0000000000004280       0x30 /tmp/cchmqi7B.ltrans0.ltrans.o
 .rodata.UefiMain
                0x00000000000042b0       0x58 /tmp/cchmqi7B.ltrans0.ltrans.o
 .rodata._ModuleEntryPoint.str1.1
                0x0000000000004308      0x10f /tmp/cchmqi7B.ltrans0.ltrans.o
 *fill*         0x0000000000004417        0x9 
 .rodata.mHexStr
                0x0000000000004420       0x10 /tmp/cchmqi7B.ltrans0.ltrans.o
 .rodata.str1.1
                0x0000000000004430      0x224 /tmp/cchmqi7B.ltrans0.ltrans.o
                                        0x235 (緩和前のサイズ)
 *(.got .got.*)
 .got           0x0000000000004654        0x0 BaseDebugPrintErrorLevelLib.obj (symbol from plugin)
 .got.plt       0x0000000000004654        0x0 BaseDebugPrintErrorLevelLib.obj (symbol from plugin)
 *:AutoGen.obj(.data.g*Guid)

.plt            0x0000000000004660        0x0
 .plt           0x0000000000004660        0x0 BaseDebugPrintErrorLevelLib.obj (symbol from plugin)

.plt.got        0x0000000000004658        0x0
 .plt.got       0x0000000000004658        0x0 BaseDebugPrintErrorLevelLib.obj (symbol from plugin)

.data           0x0000000000004680      0x198
 *(.data .data.* .gnu.linkonce.d.*)
 .data.gEfiGraphicsOutputProtocolGuid
                0x0000000000004680       0x10 /tmp/cchmqi7B.ltrans0.ltrans.o
 .data.gEfiAcpiTableGuid
                0x0000000000004690       0x10 /tmp/cchmqi7B.ltrans0.ltrans.o
 .data.gEfiFileInfoGuid
                0x00000000000046a0       0x10 /tmp/cchmqi7B.ltrans0.ltrans.o
 .data.gEfiSimpleFileSystemProtocolGuid
                0x00000000000046b0       0x10 /tmp/cchmqi7B.ltrans0.ltrans.o
 .data.rel.ro.local.mStatusString
                0x00000000000046c0      0x138 /tmp/cchmqi7B.ltrans0.ltrans.o
 .data.rel.ro   0x00000000000047f8        0x0 BaseDebugPrintErrorLevelLib.obj (symbol from plugin)
 *(.bss .bss.*)
 .bss.gImageHandle
                0x00000000000047f8        0x8 /tmp/cchmqi7B.ltrans0.ltrans.o
 .bss.gRT       0x0000000000004800        0x8 /tmp/cchmqi7B.ltrans0.ltrans.o
 .bss.gBS       0x0000000000004808        0x8 /tmp/cchmqi7B.ltrans0.ltrans.o
 .bss.gST       0x0000000000004810        0x8 /tmp/cchmqi7B.ltrans0.ltrans.o

.eh_frame       0x0000000000004840        0x0
 *(.eh_frame)
 .eh_frame      0x0000000000004840        0x0 BaseDebugPrintErrorLevelLib.obj (symbol from plugin)
 .eh_frame      0x0000000000004840        0x0 BaseDebugPrintErrorLevelLib.obj (symbol from plugin)

.dynbss         0x0000000000004840        0x0
 .dynbss        0x0000000000004840        0x0 BaseDebugPrintErrorLevelLib.obj (symbol from plugin)

.gnu.version_d  0x0000000000004840        0x0
 .gnu.version_d
                0x0000000000004840        0x0 BaseDebugPrintErrorLevelLib.obj (symbol from plugin)

.gnu.version    0x0000000000004840        0x0
 .gnu.version   0x0000000000004840        0x0 BaseDebugPrintErrorLevelLib.obj (symbol from plugin)

.gnu.version_r  0x0000000000004840        0x0
 .gnu.version_r
                0x0000000000004840        0x0 BaseDebugPrintErrorLevelLib.obj (symbol from plugin)

.rela           0x0000000000004840      0x3a8
 *(.rela .rela.*)
 .rela.plt      0x0000000000004840        0x0 BaseDebugPrintErrorLevelLib.obj (symbol from plugin)
 .rela.got      0x0000000000004840        0x0 BaseDebugPrintErrorLevelLib.obj (symbol from plugin)
 .rela.bss      0x0000000000004840        0x0 BaseDebugPrintErrorLevelLib.obj (symbol from plugin)
 .rela.data.rel.ro
                0x0000000000004840        0x0 BaseDebugPrintErrorLevelLib.obj (symbol from plugin)
 .rela.ifunc    0x0000000000004840        0x0 BaseDebugPrintErrorLevelLib.obj (symbol from plugin)
 .rela.data.rel.ro.local.mStatusString
                0x0000000000004840      0x3a8 BaseDebugPrintErrorLevelLib.obj (symbol from plugin)

.hii
 *(.hii)

.build-id       0x0000000000004be8       0x24
 *(.note.gnu.build-id)
 .note.gnu.build-id
                0x0000000000004be8       0x24 BaseDebugPrintErrorLevelLib.obj (symbol from plugin)

/DISCARD/
 *(.note.GNU-stack)
 *(.gnu_debuglink)
 *(.interp)
 *(.dynsym)
 *(.dynstr)
 *(.dynamic)
 *(.hash .gnu.hash)
 *(.comment)
 *(COMMON)
OUTPUT(/home/naoki/XV6/edk2/xv6_bootloader/build/RELEASE_GCC5/X64/xv6_bootloader/loader/DEBUG/loader.dll elf64-x86-64)

.debug_info     0x0000000000000000    0x3eaad
 .debug_info    0x0000000000000000    0x3b4a6 /tmp/ccb9kUiqdebugobj
                0x0000000000000000                BaseDebugPrintErrorLevelLib.c.03120c98
                0x000000000000023f                PrintLibInternal.c.ddd3d916
                0x0000000000000a2c                PrintLib.c.e0e1e126
                0x00000000000011c2                SetMem.c.d498bae7
                0x000000000000144f                ScanMem64Wrapper.c.423ef119
                0x0000000000001692                ScanMem32Wrapper.c.24c0d596
                0x00000000000018d5                ScanMem16Wrapper.c.8dd5d1a3
                0x0000000000001b18                ScanMem8Wrapper.c.324a9326
                0x0000000000001d8c                ZeroMemWrapper.c.47948ea2
                0x0000000000001fb8                CompareMemWrapper.c.d0ab22d9
                0x0000000000002211                SetMem64Wrapper.c.c94bc9e6
                0x0000000000002449                SetMem32Wrapper.c.d409f75d
                0x0000000000002681                SetMem16Wrapper.c.37d48a41
                0x00000000000028b9                SetMemWrapper.c.4221f4d1
                0x0000000000002b26                CopyMemWrapper.c.3cd21c08
                0x0000000000002d69                IsZeroBufferWrapper.c.c87dcb39
                0x0000000000002f9e                MemLibGeneric.c.3d3448b4
                0x000000000000343f                MemLibGuid.c.c9f16877
                0x0000000000003756                CopyMem.c.2e622a6a
                0x0000000000003a23                PcdLib.c.59702018
                0x000000000000465e                CheckSum.c.9af53803
                0x0000000000004b5b                SwitchStack.c.42373ee6
                0x0000000000004e39                SwapBytes64.c.932a0997
                0x00000000000050a2                SwapBytes32.c.8a70db6e
                0x0000000000005323                SwapBytes16.c.ecbc6b1d
                0x000000000000558c                LongJump.c.61c6b1e7
                0x00000000000058d5                SetJump.c.98d398c5
                0x0000000000005c12                RShiftU64.c.d0e827e3
                0x0000000000005e93                RRotU64.c.fab3b2a7
                0x0000000000006114                RRotU32.c.e404e195
                0x0000000000006395                MultU64x64.c.11a82f70
                0x0000000000006616                MultU64x32.c.112a6aa4
                0x0000000000006897                MultS64x64.c.4e64585c
                0x0000000000006b18                ModU64x32.c.085ad1b0
                0x0000000000006d8d                LShiftU64.c.0288e2c6
                0x000000000000700e                LRotU64.c.9a3445c2
                0x000000000000728f                LRotU32.c.dea3f40e
                0x0000000000007510                LowBitSet64.c.c0a4b4e9
                0x000000000000779d                LowBitSet32.c.12204c79
                0x0000000000007a2a                HighBitSet64.c.ef864d31
                0x0000000000007cab                HighBitSet32.c.7bc88c3b
                0x0000000000007f44                GetPowerOfTwo64.c.28bc4d3b
                0x00000000000081b9                GetPowerOfTwo32.c.7e03a6e0
                0x0000000000008422                DivU64x64Remainder.c.182a261e
                0x00000000000086ad                DivU64x32Remainder.c.5bf2a158
                0x0000000000008938                DivU64x32.c.1ffd4249
                0x0000000000008bad                DivS64x64Remainder.c.b569d0c8
                0x0000000000008e44                ARShiftU64.c.2fd2c809
                0x00000000000090c5                BitField.c.7318ed5a
                0x0000000000009972                CpuDeadLoop.c.7b4167ce
                0x0000000000009be8                Cpu.c.493887f4
                0x0000000000009e6e                LinkedList.c.8e28f71b
                0x000000000000a33d                SafeString.c.6a2ec2d5
                0x000000000000b1b1                String.c.adb183fb
                0x000000000000bb54                FilePaths.c.3ed1ddef
                0x000000000000be10                Non_existing.c.db5f5255
                0x000000000000c143                Math64.c.c15524d8
                0x000000000000c625                Unaligned.c.b987e873
                0x000000000000c9bb                X86WriteIdtr.c.e7138607
                0x000000000000cc6f                X86WriteGdtr.c.eb30ecb0
                0x000000000000cf23                X86Thunk.c.24534516
                0x000000000000d881                X86ReadIdtr.c.2bb5e1ec
                0x000000000000db30                X86ReadGdtr.c.7b1c535c
                0x000000000000dddf                X86Msr.c.d02335e1
                0x000000000000e448                X86GetInterruptState.c.5add7b50
                0x000000000000e862                X86FxSave.c.9e27907c
                0x000000000000eb15                X86FxRestore.c.7f1458f5
                0x000000000000edcd                X86EnablePaging64.c.1beba637
                0x000000000000f061                X86EnablePaging32.c.9621b984
                0x000000000000f30f                X86DisablePaging64.c.edfe7e47
                0x000000000000f5a3                X86DisablePaging32.c.69c30e37
                0x000000000000f851                X86RdRand.c.e84c77fe
                0x000000000000fb0a                X86PatchInstruction.c.af689484
                0x000000000000fdab                GccInline.c.f4f20dd5
                0x00000000000108b7                ChkStkGcc.c.d01c8232
                0x0000000000010b0f                DebugLib.c.66b622b7
                0x00000000000125c5                UefiBootServicesTableLib.c.1c2fa006
                0x0000000000013f57                MemoryAllocationLib.c.ee0b1db5
                0x0000000000015de9                UefiRuntimeServicesTableLib.c.14a69410
                0x000000000001774c                DevicePathUtilities.c.247f8182
                0x00000000000195cb                DevicePathToText.c.1176d7a4
                0x000000000001d39d                DevicePathFromText.c.d2deed93
                0x0000000000021a6b                UefiDevicePathLib.c.1a17236a
                0x000000000002361a                UefiLibPrint.c.f843d603
                0x0000000000025dc9                UefiNotTiano.c.2ace6acf
                0x0000000000027a5d                UefiDriverModel.c.b54d2bd0
                0x0000000000029cad                Console.c.ac403c69
                0x000000000002b9df                UefiLib.c.02a80a3e
                0x000000000002dd2e                ApplicationEntryPoint.c.8db35234
                0x000000000002f708                loader.c.40b044b7
                0x00000000000317c2                AutoGen.c.4b3e6705
                0x00000000000334d2                relocate.c.d81be113
                0x0000000000035204                memory_map.c.2dff38d1
                0x0000000000037117                graphic.c.e4aec6eb
                0x0000000000039110                file_loader.c.70c49213
                0x000000000003b03d                pci.c.4565d00a
 .debug_info    0x000000000003b4a6     0x3607 /tmp/cchmqi7B.ltrans0.ltrans.o

.debug_abbrev   0x0000000000000000     0x704f
 .debug_abbrev  0x0000000000000000     0x6dfe /tmp/ccb9kUiqdebugobj
 .debug_abbrev  0x0000000000006dfe      0x251 /tmp/cchmqi7B.ltrans0.ltrans.o

.debug_line     0x0000000000000000     0xc1d7
 .debug_line    0x0000000000000000     0xa5fe /tmp/ccb9kUiqdebugobj
 .debug_line    0x000000000000a5fe     0x1bd9 /tmp/cchmqi7B.ltrans0.ltrans.o

.debug_str      0x0000000000000000     0x9634
 .debug_str     0x0000000000000000     0x94c3 /tmp/ccb9kUiqdebugobj
                                      0x3d008 (緩和前のサイズ)
 .debug_str     0x00000000000094c3      0x171 /tmp/cchmqi7B.ltrans0.ltrans.o
                                        0x1e9 (緩和前のサイズ)

.debug_loc      0x0000000000000000     0x5730
 .debug_loc     0x0000000000000000     0x5730 /tmp/cchmqi7B.ltrans0.ltrans.o

.debug_aranges  0x0000000000000000      0x190
 .debug_aranges
                0x0000000000000000      0x190 /tmp/cchmqi7B.ltrans0.ltrans.o

.debug_ranges   0x0000000000000000      0xd20
 .debug_ranges  0x0000000000000000      0xd20 /tmp/cchmqi7B.ltrans0.ltrans.o

.debug_frame    0x0000000000000000      0x6b8
 .debug_frame   0x0000000000000000      0x6b8 /tmp/cchmqi7B.ltrans0.ltrans.o
